
or1200-cbasic.elf:     file format elf32-or32


Disassembly of section .vectors:

00000000 <.vectors>:
	...
 100:	18 00 00 00 	l.movhi r0,0x0
 104:	18 20 00 00 	l.movhi r1,0x0
 108:	18 40 00 00 	l.movhi r2,0x0
 10c:	18 60 00 00 	l.movhi r3,0x0
 110:	18 80 00 00 	l.movhi r4,0x0
 114:	18 a0 00 00 	l.movhi r5,0x0
 118:	18 c0 00 00 	l.movhi r6,0x0
 11c:	18 e0 00 00 	l.movhi r7,0x0
 120:	19 00 00 00 	l.movhi r8,0x0
 124:	19 20 00 00 	l.movhi r9,0x0
 128:	19 40 00 00 	l.movhi r10,0x0
 12c:	19 60 00 00 	l.movhi r11,0x0
 130:	19 80 00 00 	l.movhi r12,0x0
 134:	19 a0 00 00 	l.movhi r13,0x0
 138:	19 c0 00 00 	l.movhi r14,0x0
 13c:	19 e0 00 00 	l.movhi r15,0x0
 140:	1a 00 00 00 	l.movhi r16,0x0
 144:	1a 20 00 00 	l.movhi r17,0x0
 148:	1a 40 00 00 	l.movhi r18,0x0
 14c:	1a 60 00 00 	l.movhi r19,0x0
 150:	1a 80 00 00 	l.movhi r20,0x0
 154:	1a a0 00 00 	l.movhi r21,0x0
 158:	1a c0 00 00 	l.movhi r22,0x0
 15c:	1a e0 00 00 	l.movhi r23,0x0
 160:	1b 00 00 00 	l.movhi r24,0x0
 164:	1b 20 00 00 	l.movhi r25,0x0
 168:	1b 40 00 00 	l.movhi r26,0x0
 16c:	1b 60 00 00 	l.movhi r27,0x0
 170:	1b 80 00 00 	l.movhi r28,0x0
 174:	1b a0 00 00 	l.movhi r29,0x0
 178:	1b c0 00 00 	l.movhi r30,0x0
 17c:	1b e0 00 00 	l.movhi r31,0x0
 180:	a8 20 00 01 	l.ori r1,r0,0x1
 184:	c0 00 08 11 	l.mtspr r0,r1,0x11
 188:	c1 40 00 00 	l.mtspr r0,r0,0x5000
 18c:	18 20 00 00 	l.movhi r1,0x0
 190:	a8 21 87 04 	l.ori r1,r1,0x8704
 194:	9c 40 ff fd 	l.addi r2,r0,0xfffffffd
 198:	e0 21 10 03 	l.and r1,r1,r2
 19c:	18 80 00 00 	l.movhi r4,0x0
 1a0:	a8 84 10 50 	l.ori r4,r4,0x1050
 1a4:	44 00 20 00 	l.jr r4
 1a8:	15 00 00 00 	l.nop 0x0
	...
 200:	9c 21 ff 00 	l.addi r1,r1,0xffffff00
 204:	d4 01 18 04 	l.sw 0x4(r1),r3
 208:	d4 01 20 08 	l.sw 0x8(r1),r4
 20c:	b4 60 00 10 	l.mfspr r3,r0,0x10
 210:	b4 80 00 20 	l.mfspr r4,r0,0x20
 214:	00 00 03 a0 	l.j 1094 <default_exception_handler>
 218:	15 00 00 00 	l.nop 0x0
	...
 300:	9c 21 ff 00 	l.addi r1,r1,0xffffff00
 304:	d4 01 18 04 	l.sw 0x4(r1),r3
 308:	d4 01 20 08 	l.sw 0x8(r1),r4
 30c:	b4 60 00 10 	l.mfspr r3,r0,0x10
 310:	b4 80 00 20 	l.mfspr r4,r0,0x20
 314:	00 00 03 60 	l.j 1094 <default_exception_handler>
 318:	15 00 00 00 	l.nop 0x0
	...
 400:	9c 21 ff 00 	l.addi r1,r1,0xffffff00
 404:	d4 01 18 04 	l.sw 0x4(r1),r3
 408:	d4 01 20 08 	l.sw 0x8(r1),r4
 40c:	b4 60 00 10 	l.mfspr r3,r0,0x10
 410:	b4 80 00 20 	l.mfspr r4,r0,0x20
 414:	00 00 03 20 	l.j 1094 <default_exception_handler>
 418:	15 00 00 00 	l.nop 0x0
	...
 500:	9c 21 ff 00 	l.addi r1,r1,0xffffff00
 504:	d4 01 18 04 	l.sw 0x4(r1),r3
 508:	d4 01 20 08 	l.sw 0x8(r1),r4
 50c:	b4 60 00 10 	l.mfspr r3,r0,0x10
 510:	b4 80 00 20 	l.mfspr r4,r0,0x20
 514:	00 00 02 e0 	l.j 1094 <default_exception_handler>
 518:	15 00 00 00 	l.nop 0x0
	...
 600:	9c 21 ff 00 	l.addi r1,r1,0xffffff00
 604:	d4 01 18 04 	l.sw 0x4(r1),r3
 608:	d4 01 20 08 	l.sw 0x8(r1),r4
 60c:	b4 60 00 10 	l.mfspr r3,r0,0x10
 610:	b4 80 00 20 	l.mfspr r4,r0,0x20
 614:	00 00 02 a0 	l.j 1094 <default_exception_handler>
 618:	15 00 00 00 	l.nop 0x0
	...
 700:	9c 21 ff 00 	l.addi r1,r1,0xffffff00
 704:	d4 01 18 04 	l.sw 0x4(r1),r3
 708:	d4 01 20 08 	l.sw 0x8(r1),r4
 70c:	b4 60 00 10 	l.mfspr r3,r0,0x10
 710:	b4 80 00 20 	l.mfspr r4,r0,0x20
 714:	00 00 02 60 	l.j 1094 <default_exception_handler>
 718:	15 00 00 00 	l.nop 0x0
	...
 800:	9c 21 ff 00 	l.addi r1,r1,0xffffff00
 804:	d4 01 18 04 	l.sw 0x4(r1),r3
 808:	d4 01 20 08 	l.sw 0x8(r1),r4
 80c:	b4 60 00 10 	l.mfspr r3,r0,0x10
 810:	b4 80 00 20 	l.mfspr r4,r0,0x20
 814:	00 00 02 20 	l.j 1094 <default_exception_handler>
 818:	15 00 00 00 	l.nop 0x0
	...
 900:	9c 21 ff 00 	l.addi r1,r1,0xffffff00
 904:	d4 01 18 04 	l.sw 0x4(r1),r3
 908:	d4 01 20 08 	l.sw 0x8(r1),r4
 90c:	b4 60 00 10 	l.mfspr r3,r0,0x10
 910:	b4 80 00 20 	l.mfspr r4,r0,0x20
 914:	00 00 01 e0 	l.j 1094 <default_exception_handler>
 918:	15 00 00 00 	l.nop 0x0
	...
 a00:	9c 21 ff 00 	l.addi r1,r1,0xffffff00
 a04:	d4 01 18 04 	l.sw 0x4(r1),r3
 a08:	d4 01 20 08 	l.sw 0x8(r1),r4
 a0c:	b4 60 00 10 	l.mfspr r3,r0,0x10
 a10:	b4 80 00 20 	l.mfspr r4,r0,0x20
 a14:	00 00 01 a0 	l.j 1094 <default_exception_handler>
 a18:	15 00 00 00 	l.nop 0x0
	...
 b00:	9c 21 ff 00 	l.addi r1,r1,0xffffff00
 b04:	d4 01 18 04 	l.sw 0x4(r1),r3
 b08:	d4 01 20 08 	l.sw 0x8(r1),r4
 b0c:	b4 60 00 10 	l.mfspr r3,r0,0x10
 b10:	b4 80 00 20 	l.mfspr r4,r0,0x20
 b14:	00 00 01 60 	l.j 1094 <default_exception_handler>
 b18:	15 00 00 00 	l.nop 0x0
	...
 c00:	9c 21 ff 00 	l.addi r1,r1,0xffffff00
 c04:	d4 01 18 04 	l.sw 0x4(r1),r3
 c08:	d4 01 20 08 	l.sw 0x8(r1),r4
 c0c:	b4 60 00 10 	l.mfspr r3,r0,0x10
 c10:	b4 80 00 20 	l.mfspr r4,r0,0x20
 c14:	00 00 01 20 	l.j 1094 <default_exception_handler>
 c18:	15 00 00 00 	l.nop 0x0
	...
 d00:	9c 21 ff 00 	l.addi r1,r1,0xffffff00
 d04:	d4 01 18 04 	l.sw 0x4(r1),r3
 d08:	d4 01 20 08 	l.sw 0x8(r1),r4
 d0c:	b4 60 00 10 	l.mfspr r3,r0,0x10
 d10:	b4 80 00 20 	l.mfspr r4,r0,0x20
 d14:	00 00 00 e0 	l.j 1094 <default_exception_handler>
 d18:	15 00 00 00 	l.nop 0x0
	...
 e00:	9c 21 ff 00 	l.addi r1,r1,0xffffff00
 e04:	d4 01 18 04 	l.sw 0x4(r1),r3
 e08:	d4 01 20 08 	l.sw 0x8(r1),r4
 e0c:	b4 60 00 10 	l.mfspr r3,r0,0x10
 e10:	b4 80 00 20 	l.mfspr r4,r0,0x20
 e14:	00 00 00 a0 	l.j 1094 <default_exception_handler>
 e18:	15 00 00 00 	l.nop 0x0

Disassembly of section .text:

00001000 <foo1>:
int foo1(int a, int b)
{
    int c;    
	c = a + b;
	return c;
}
    1000:	44 00 48 00 	l.jr r9
    1004:	e1 64 18 00 	l.add r11,r4,r3

00001008 <foo2>:
long foo2(int a, int b)
{
    long c;    
	c = a * b;
	return c;
}
    1008:	44 00 48 00 	l.jr r9
    100c:	e1 64 1b 06 	l.mul r11,r4,r3

00001010 <main>:
	long y=0;
	
int main()
{

	x = foo1(a,b);
    1010:	18 60 00 00 	l.movhi r3,0x0
    1014:	18 80 00 00 	l.movhi r4,0x0
    1018:	a8 63 62 d4 	l.ori r3,r3,0x62d4
    101c:	a8 84 62 d8 	l.ori r4,r4,0x62d8
    1020:	84 63 00 00 	l.lwz r3,0x0(r3)
    1024:	84 84 00 00 	l.lwz r4,0x0(r4)
    1028:	18 c0 00 00 	l.movhi r6,0x0
}

long foo2(int a, int b)
{
    long c;    
	c = a * b;
    102c:	e0 a4 1b 06 	l.mul r5,r4,r3
	long y=0;
	
int main()
{

	x = foo1(a,b);
    1030:	a8 c6 62 dc 	l.ori r6,r6,0x62dc
#include "lib-utils.h"
 
int foo1(int a, int b)
{
    int c;    
	c = a + b;
    1034:	e0 64 18 00 	l.add r3,r4,r3
	long y=0;
	
int main()
{

	x = foo1(a,b);
    1038:	d4 06 18 00 	l.sw 0x0(r6),r3
	y=foo2(a,b);
    103c:	18 60 00 00 	l.movhi r3,0x0
    1040:	a8 63 63 d0 	l.ori r3,r3,0x63d0
    1044:	d4 03 28 00 	l.sw 0x0(r3),r5
    1048:	00 00 00 00 	l.j 1048 <main+0x38>
    104c:	15 00 00 00 	l.nop 0x0

00001050 <_start>:
    1050:	04 00 01 60 	l.jal 15d0 <_cache_init>
    1054:	15 00 00 00 	l.nop 0x0
    1058:	18 a0 00 00 	l.movhi r5,0x0
    105c:	a8 a5 63 d0 	l.ori r5,r5,0x63d0
    1060:	18 c0 00 00 	l.movhi r6,0x0
    1064:	a8 c6 67 04 	l.ori r6,r6,0x6704
    1068:	d4 05 00 00 	l.sw 0x0(r5),r0
    106c:	e4 85 30 00 	l.sfltu r5,r6
    1070:	13 ff ff fe 	l.bf 1068 <_start+0x18>
    1074:	9c a5 00 04 	l.addi r5,r5,0x4
    1078:	e0 60 00 04 	l.or r3,r0,r0
    107c:	e0 80 00 04 	l.or r4,r0,r0
    1080:	07 ff ff e4 	l.jal 1010 <main>
    1084:	15 00 00 00 	l.nop 0x0
    1088:	9c 6b 00 00 	l.addi r3,r11,0x0
    108c:	04 00 01 16 	l.jal 14e4 <exit>
    1090:	15 00 00 00 	l.nop 0x0

00001094 <default_exception_handler>:
    1094:	d4 01 10 00 	l.sw 0x0(r1),r2
    1098:	d4 01 28 0c 	l.sw 0xc(r1),r5
    109c:	d4 01 30 10 	l.sw 0x10(r1),r6
    10a0:	d4 01 38 14 	l.sw 0x14(r1),r7
    10a4:	d4 01 40 18 	l.sw 0x18(r1),r8
    10a8:	d4 01 48 1c 	l.sw 0x1c(r1),r9
    10ac:	d4 01 50 20 	l.sw 0x20(r1),r10
    10b0:	d4 01 58 24 	l.sw 0x24(r1),r11
    10b4:	d4 01 60 28 	l.sw 0x28(r1),r12
    10b8:	d4 01 68 2c 	l.sw 0x2c(r1),r13
    10bc:	d4 01 70 30 	l.sw 0x30(r1),r14
    10c0:	d4 01 78 34 	l.sw 0x34(r1),r15
    10c4:	d4 01 80 38 	l.sw 0x38(r1),r16
    10c8:	d4 01 88 3c 	l.sw 0x3c(r1),r17
    10cc:	d4 01 90 40 	l.sw 0x40(r1),r18
    10d0:	d4 01 98 44 	l.sw 0x44(r1),r19
    10d4:	d4 01 a0 48 	l.sw 0x48(r1),r20
    10d8:	d4 01 a8 4c 	l.sw 0x4c(r1),r21
    10dc:	d4 01 b0 50 	l.sw 0x50(r1),r22
    10e0:	d4 01 b8 54 	l.sw 0x54(r1),r23
    10e4:	d4 01 c0 58 	l.sw 0x58(r1),r24
    10e8:	d4 01 c8 5c 	l.sw 0x5c(r1),r25
    10ec:	d4 01 d0 60 	l.sw 0x60(r1),r26
    10f0:	d4 01 d8 64 	l.sw 0x64(r1),r27
    10f4:	d4 01 e0 68 	l.sw 0x68(r1),r28
    10f8:	d4 01 e8 6c 	l.sw 0x6c(r1),r29
    10fc:	d4 01 f0 70 	l.sw 0x70(r1),r30
    1100:	d4 01 f8 74 	l.sw 0x74(r1),r31
    1104:	d4 01 00 78 	l.sw 0x78(r1),r0
    1108:	04 00 00 2e 	l.jal 11c0 <default_exception_handler_c>
    110c:	15 00 00 00 	l.nop 0x0
    1110:	84 41 00 00 	l.lwz r2,0x0(r1)
    1114:	84 61 00 04 	l.lwz r3,0x4(r1)
    1118:	84 81 00 08 	l.lwz r4,0x8(r1)
    111c:	84 a1 00 0c 	l.lwz r5,0xc(r1)
    1120:	84 c1 00 10 	l.lwz r6,0x10(r1)
    1124:	84 e1 00 14 	l.lwz r7,0x14(r1)
    1128:	85 01 00 18 	l.lwz r8,0x18(r1)
    112c:	85 21 00 1c 	l.lwz r9,0x1c(r1)
    1130:	85 41 00 20 	l.lwz r10,0x20(r1)
    1134:	85 61 00 24 	l.lwz r11,0x24(r1)
    1138:	85 81 00 28 	l.lwz r12,0x28(r1)
    113c:	85 a1 00 2c 	l.lwz r13,0x2c(r1)
    1140:	85 c1 00 30 	l.lwz r14,0x30(r1)
    1144:	85 e1 00 34 	l.lwz r15,0x34(r1)
    1148:	86 01 00 38 	l.lwz r16,0x38(r1)
    114c:	86 21 00 3c 	l.lwz r17,0x3c(r1)
    1150:	86 41 00 40 	l.lwz r18,0x40(r1)
    1154:	86 61 00 44 	l.lwz r19,0x44(r1)
    1158:	86 81 00 48 	l.lwz r20,0x48(r1)
    115c:	86 a1 00 4c 	l.lwz r21,0x4c(r1)
    1160:	86 c1 00 50 	l.lwz r22,0x50(r1)
    1164:	86 e1 00 54 	l.lwz r23,0x54(r1)
    1168:	87 01 00 58 	l.lwz r24,0x58(r1)
    116c:	87 21 00 5c 	l.lwz r25,0x5c(r1)
    1170:	87 41 00 60 	l.lwz r26,0x60(r1)
    1174:	87 61 00 64 	l.lwz r27,0x64(r1)
    1178:	87 81 00 68 	l.lwz r28,0x68(r1)
    117c:	87 a1 00 6c 	l.lwz r29,0x6c(r1)
    1180:	87 c1 00 70 	l.lwz r30,0x70(r1)
    1184:	87 e1 00 74 	l.lwz r31,0x74(r1)
    1188:	84 01 00 78 	l.lwz r0,0x78(r1)
    118c:	9c 21 01 00 	l.addi r1,r1,0x100
    1190:	24 00 00 00 	l.rfe 
    1194:	15 00 00 00 	l.nop 0x0

00001198 <add_handler>:
				    0};    // 13
  

void
add_handler(unsigned long vector, void (*handler) (void))
{
    1198:	d7 e1 17 fc 	l.sw 0xfffffffc(r1),r2
  except_handlers[vector] = handler;
    119c:	18 40 00 00 	l.movhi r2,0x0
    11a0:	b8 63 00 02 	l.slli r3,r3,0x2
    11a4:	a8 42 63 5c 	l.ori r2,r2,0x635c
				    0};    // 13
  

void
add_handler(unsigned long vector, void (*handler) (void))
{
    11a8:	9c 21 ff fc 	l.addi r1,r1,0xfffffffc
  except_handlers[vector] = handler;
    11ac:	e0 63 10 00 	l.add r3,r3,r2
    11b0:	d4 03 20 00 	l.sw 0x0(r3),r4
}
    11b4:	9c 21 00 04 	l.addi r1,r1,0x4
    11b8:	44 00 48 00 	l.jr r9
    11bc:	84 41 ff fc 	l.lwz r2,0xfffffffc(r1)

000011c0 <default_exception_handler_c>:

void 
default_exception_handler_c(unsigned exception_address,unsigned epc)
{
    11c0:	d7 e1 87 f8 	l.sw 0xfffffff8(r1),r16
  int exception_no = (exception_address >> 8) & 0x1f;
    11c4:	ba 03 00 46 	l.srli r16,r3,0x6
  except_handlers[vector] = handler;
}

void 
default_exception_handler_c(unsigned exception_address,unsigned epc)
{
    11c8:	d7 e1 77 f4 	l.sw 0xfffffff4(r1),r14
    11cc:	a9 c4 00 00 	l.ori r14,r4,0x0
  int exception_no = (exception_address >> 8) & 0x1f;
  if (except_handlers[exception_no])
    11d0:	18 80 00 00 	l.movhi r4,0x0
    11d4:	a6 10 00 7c 	l.andi r16,r16,0x7c
    11d8:	a8 84 63 5c 	l.ori r4,r4,0x635c
  except_handlers[vector] = handler;
}

void 
default_exception_handler_c(unsigned exception_address,unsigned epc)
{
    11dc:	d7 e1 17 f0 	l.sw 0xfffffff0(r1),r2
    11e0:	a8 43 00 00 	l.ori r2,r3,0x0
  int exception_no = (exception_address >> 8) & 0x1f;
  if (except_handlers[exception_no])
    11e4:	e0 70 20 00 	l.add r3,r16,r4
  except_handlers[vector] = handler;
}

void 
default_exception_handler_c(unsigned exception_address,unsigned epc)
{
    11e8:	d7 e1 4f fc 	l.sw 0xfffffffc(r1),r9
  int exception_no = (exception_address >> 8) & 0x1f;
  if (except_handlers[exception_no])
    11ec:	84 a3 00 00 	l.lwz r5,0x0(r3)
    11f0:	bc 05 00 00 	l.sfeqi r5,0x0
    11f4:	10 00 00 08 	l.bf 1214 <default_exception_handler_c+0x54>
    11f8:	9c 21 ff e8 	l.addi r1,r1,0xffffffe8
  printf("EPC = 0x%.8x\n", epc);
  report(exception_address);
  report(epc);
  __asm__("l.nop 1");
  for(;;);
}
    11fc:	9c 21 00 18 	l.addi r1,r1,0x18
    1200:	85 21 ff fc 	l.lwz r9,0xfffffffc(r1)
    1204:	84 41 ff f0 	l.lwz r2,0xfffffff0(r1)
    1208:	85 c1 ff f4 	l.lwz r14,0xfffffff4(r1)
default_exception_handler_c(unsigned exception_address,unsigned epc)
{
  int exception_no = (exception_address >> 8) & 0x1f;
  if (except_handlers[exception_no])
    {	    
	    (*except_handlers[exception_no])();
    120c:	44 00 28 00 	l.jr r5
    1210:	86 01 ff f8 	l.lwz r16,0xfffffff8(r1)
	    return;
    }

  // init uart here, incase it hasn't been
  uart_init(DEFAULT_UART);
    1214:	04 00 01 31 	l.jal 16d8 <uart_init>
    1218:	a8 65 00 00 	l.ori r3,r5,0x0
	  
  printf("EPC = 0x%.8x\n", exception_address);
    121c:	18 60 00 00 	l.movhi r3,0x0
    1220:	d4 01 10 00 	l.sw 0x0(r1),r2
    1224:	04 00 05 96 	l.jal 287c <printf_to_uart>
    1228:	a8 63 61 54 	l.ori r3,r3,0x6154
	  
  // Output initial messaging using low-level functions incase
  // something really bad happened.
  printf("%s%s", exception_strings[exception_no], 
    122c:	18 80 00 00 	l.movhi r4,0x0
    1230:	a8 84 62 e0 	l.ori r4,r4,0x62e0
    1234:	e0 70 20 00 	l.add r3,r16,r4
    1238:	84 83 00 00 	l.lwz r4,0x0(r3)
    123c:	18 60 00 00 	l.movhi r3,0x0
    1240:	d4 01 20 00 	l.sw 0x0(r1),r4
    1244:	18 80 00 00 	l.movhi r4,0x0
    1248:	a8 63 61 62 	l.ori r3,r3,0x6162
    124c:	a8 84 61 67 	l.ori r4,r4,0x6167
    1250:	04 00 05 8b 	l.jal 287c <printf_to_uart>
    1254:	d4 01 20 04 	l.sw 0x4(r1),r4
	 STR_EXCEPTION_OCCURED);
	  
  // Icing on the cake using fancy functions
  printf("EPC = 0x%.8x\n", epc);
    1258:	18 60 00 00 	l.movhi r3,0x0
    125c:	d4 01 70 00 	l.sw 0x0(r1),r14
    1260:	04 00 05 87 	l.jal 287c <printf_to_uart>
    1264:	a8 63 61 54 	l.ori r3,r3,0x6154
  report(exception_address);
    1268:	04 00 00 9b 	l.jal 14d4 <report>
    126c:	a8 62 00 00 	l.ori r3,r2,0x0
  report(epc);
    1270:	04 00 00 99 	l.jal 14d4 <report>
    1274:	a8 6e 00 00 	l.ori r3,r14,0x0
  __asm__("l.nop 1");
    1278:	15 00 00 01 	l.nop 0x1
    127c:	00 00 00 00 	l.j 127c <default_exception_handler_c+0xbc>
    1280:	15 00 00 00 	l.nop 0x0

00001284 <int_init>:
/* Interrupt handlers table */
struct ihnd int_handlers[MAX_INT_HANDLERS];

/* Initialize routine */
int int_init()
{
    1284:	18 60 00 00 	l.movhi r3,0x0
    1288:	d7 e1 17 fc 	l.sw 0xfffffffc(r1),r2
    128c:	a8 63 63 d8 	l.ori r3,r3,0x63d8
    1290:	9c 21 ff fc 	l.addi r1,r1,0xfffffffc
  int i;

  for(i = 0; i < MAX_INT_HANDLERS; i++) {
    int_handlers[i].handler = 0;
    1294:	9c 40 00 00 	l.addi r2,r0,0x0
    1298:	d4 03 10 00 	l.sw 0x0(r3),r2
    int_handlers[i].arg = 0;
    129c:	d4 03 10 04 	l.sw 0x4(r3),r2
/* Initialize routine */
int int_init()
{
  int i;

  for(i = 0; i < MAX_INT_HANDLERS; i++) {
    12a0:	18 40 00 00 	l.movhi r2,0x0
    int_handlers[i].handler = 0;
    int_handlers[i].arg = 0;
    12a4:	9c 63 00 08 	l.addi r3,r3,0x8
/* Initialize routine */
int int_init()
{
  int i;

  for(i = 0; i < MAX_INT_HANDLERS; i++) {
    12a8:	a8 42 64 d8 	l.ori r2,r2,0x64d8
    12ac:	e4 23 10 00 	l.sfne r3,r2
    12b0:	13 ff ff f9 	l.bf 1294 <int_init+0x10>
    12b4:	9d 60 00 00 	l.addi r11,r0,0x0
    int_handlers[i].handler = 0;
    int_handlers[i].arg = 0;
  }
  
  return 0;
}
    12b8:	9c 21 00 04 	l.addi r1,r1,0x4
    12bc:	44 00 48 00 	l.jr r9
    12c0:	84 41 ff fc 	l.lwz r2,0xfffffffc(r1)

000012c4 <int_add>:

/* Add interrupt handler */ 
int int_add(unsigned long irq, void (* handler)(void *), void *arg)
{
    12c4:	d7 e1 17 f8 	l.sw 0xfffffff8(r1),r2
    12c8:	d7 e1 4f fc 	l.sw 0xfffffffc(r1),r9
    12cc:	a8 43 00 00 	l.ori r2,r3,0x0
    12d0:	9c 21 ff f8 	l.addi r1,r1,0xfffffff8
  if(irq >= MAX_INT_HANDLERS)
    12d4:	bc 43 00 1f 	l.sfgtui r3,0x1f
    12d8:	10 00 00 10 	l.bf 1318 <int_add+0x54>
    12dc:	9d 60 ff ff 	l.addi r11,r0,0xffffffff
    return -1;

  int_handlers[irq].handler = handler;
    12e0:	18 e0 00 00 	l.movhi r7,0x0
    12e4:	b8 c3 00 03 	l.slli r6,r3,0x3
    12e8:	a8 e7 63 d8 	l.ori r7,r7,0x63d8
  int_handlers[irq].arg = arg;

  mtspr(SPR_PICMR, mfspr(SPR_PICMR) | (0x00000001L << irq));
    12ec:	9c 60 48 00 	l.addi r3,r0,0x4800
int int_add(unsigned long irq, void (* handler)(void *), void *arg)
{
  if(irq >= MAX_INT_HANDLERS)
    return -1;

  int_handlers[irq].handler = handler;
    12f0:	e0 c6 38 00 	l.add r6,r6,r7
    12f4:	d4 06 20 00 	l.sw 0x0(r6),r4
  int_handlers[irq].arg = arg;

  mtspr(SPR_PICMR, mfspr(SPR_PICMR) | (0x00000001L << irq));
    12f8:	04 00 00 6f 	l.jal 14b4 <mfspr>
    12fc:	d4 06 28 04 	l.sw 0x4(r6),r5
    1300:	9c 80 00 01 	l.addi r4,r0,0x1
    1304:	9c 60 48 00 	l.addi r3,r0,0x4800
    1308:	e0 44 10 08 	l.sll r2,r4,r2
    130c:	04 00 00 67 	l.jal 14a8 <mtspr>
    1310:	e0 8b 10 04 	l.or r4,r11,r2
    
  return 0;
    1314:	9d 60 00 00 	l.addi r11,r0,0x0
}
    1318:	9c 21 00 08 	l.addi r1,r1,0x8
    131c:	85 21 ff fc 	l.lwz r9,0xfffffffc(r1)
    1320:	44 00 48 00 	l.jr r9
    1324:	84 41 ff f8 	l.lwz r2,0xfffffff8(r1)

00001328 <int_disable>:

/* Disable interrupt */ 
int int_disable(unsigned long irq)
{
    1328:	d7 e1 17 f8 	l.sw 0xfffffff8(r1),r2
    132c:	d7 e1 4f fc 	l.sw 0xfffffffc(r1),r9
    1330:	a8 43 00 00 	l.ori r2,r3,0x0
    1334:	9c 21 ff f8 	l.addi r1,r1,0xfffffff8
  if(irq >= MAX_INT_HANDLERS)
    1338:	bc 43 00 1f 	l.sfgtui r3,0x1f
    133c:	10 00 00 0b 	l.bf 1368 <int_disable+0x40>
    1340:	9d 60 ff ff 	l.addi r11,r0,0xffffffff
    return -1;
  
  mtspr(SPR_PICMR, mfspr(SPR_PICMR) & ~(0x00000001L << irq));
    1344:	04 00 00 5c 	l.jal 14b4 <mfspr>
    1348:	9c 60 48 00 	l.addi r3,r0,0x4800
    134c:	9c 80 00 01 	l.addi r4,r0,0x1
    1350:	9c 60 48 00 	l.addi r3,r0,0x4800
    1354:	e0 44 10 08 	l.sll r2,r4,r2
    1358:	ac 82 ff ff 	l.xori r4,r2,0xffffffff
    135c:	04 00 00 53 	l.jal 14a8 <mtspr>
    1360:	e0 8b 20 03 	l.and r4,r11,r4
  
  return 0;
    1364:	9d 60 00 00 	l.addi r11,r0,0x0
}
    1368:	9c 21 00 08 	l.addi r1,r1,0x8
    136c:	85 21 ff fc 	l.lwz r9,0xfffffffc(r1)
    1370:	44 00 48 00 	l.jr r9
    1374:	84 41 ff f8 	l.lwz r2,0xfffffff8(r1)

00001378 <int_enable>:

/* Enable interrupt */ 
int int_enable(unsigned long irq)
{
    1378:	d7 e1 17 f8 	l.sw 0xfffffff8(r1),r2
    137c:	d7 e1 4f fc 	l.sw 0xfffffffc(r1),r9
    1380:	a8 43 00 00 	l.ori r2,r3,0x0
    1384:	9c 21 ff f8 	l.addi r1,r1,0xfffffff8
  if(irq >= MAX_INT_HANDLERS)
    1388:	bc 43 00 1f 	l.sfgtui r3,0x1f
    138c:	10 00 00 0a 	l.bf 13b4 <int_enable+0x3c>
    1390:	9d 60 ff ff 	l.addi r11,r0,0xffffffff
    return -1;

  mtspr(SPR_PICMR, mfspr(SPR_PICMR) | (0x00000001L << irq));
    1394:	04 00 00 48 	l.jal 14b4 <mfspr>
    1398:	9c 60 48 00 	l.addi r3,r0,0x4800
    139c:	9c 80 00 01 	l.addi r4,r0,0x1
    13a0:	9c 60 48 00 	l.addi r3,r0,0x4800
    13a4:	e0 44 10 08 	l.sll r2,r4,r2
    13a8:	04 00 00 40 	l.jal 14a8 <mtspr>
    13ac:	e0 8b 10 04 	l.or r4,r11,r2
  
  return 0;
    13b0:	9d 60 00 00 	l.addi r11,r0,0x0
}
    13b4:	9c 21 00 08 	l.addi r1,r1,0x8
    13b8:	85 21 ff fc 	l.lwz r9,0xfffffffc(r1)
    13bc:	44 00 48 00 	l.jr r9
    13c0:	84 41 ff f8 	l.lwz r2,0xfffffff8(r1)

000013c4 <int_main>:

/* Main interrupt handler */
void int_main()
{
    13c4:	d7 e1 17 e8 	l.sw 0xffffffe8(r1),r2
    13c8:	d7 e1 77 ec 	l.sw 0xffffffec(r1),r14
    13cc:	d7 e1 97 f4 	l.sw 0xfffffff4(r1),r18
    13d0:	d7 e1 a7 f8 	l.sw 0xfffffff8(r1),r20
    13d4:	d7 e1 4f fc 	l.sw 0xfffffffc(r1),r9
    13d8:	d7 e1 87 f0 	l.sw 0xfffffff0(r1),r16
  unsigned long picsr = mfspr(SPR_PICSR);
    13dc:	9c 60 48 02 	l.addi r3,r0,0x4802
  return 0;
}

/* Main interrupt handler */
void int_main()
{
    13e0:	9c 21 ff e8 	l.addi r1,r1,0xffffffe8
  unsigned long picsr = mfspr(SPR_PICSR);
    13e4:	04 00 00 34 	l.jal 14b4 <mfspr>
    13e8:	19 c0 00 00 	l.movhi r14,0x0
  unsigned long i = 0;

  mtspr(SPR_PICSR, 0);
    13ec:	9c 80 00 00 	l.addi r4,r0,0x0
    13f0:	9c 60 48 02 	l.addi r3,r0,0x4802
    13f4:	a9 ce 63 d8 	l.ori r14,r14,0x63d8
}

/* Main interrupt handler */
void int_main()
{
  unsigned long picsr = mfspr(SPR_PICSR);
    13f8:	aa 8b 00 00 	l.ori r20,r11,0x0
  unsigned long i = 0;
    13fc:	a8 44 00 00 	l.ori r2,r4,0x0

  mtspr(SPR_PICSR, 0);
    1400:	04 00 00 2a 	l.jal 14a8 <mtspr>
    1404:	9e 40 00 01 	l.addi r18,r0,0x1

  while(i < 32) {
    if((picsr & (0x01L << i)) && (int_handlers[i].handler != 0)) {
    1408:	e2 12 10 08 	l.sll r16,r18,r2
    140c:	e0 70 a0 03 	l.and r3,r16,r20
    1410:	bc 03 00 00 	l.sfeqi r3,0x0
    1414:	10 00 00 0e 	l.bf 144c <int_main+0x88>
    1418:	9c 42 00 01 	l.addi r2,r2,0x1
    141c:	84 8e 00 00 	l.lwz r4,0x0(r14)
    1420:	bc 04 00 00 	l.sfeqi r4,0x0
    1424:	10 00 00 0b 	l.bf 1450 <int_main+0x8c>
    1428:	bc 22 00 20 	l.sfnei r2,0x20
      (*int_handlers[i].handler)(int_handlers[i].arg); 
    142c:	48 00 20 00 	l.jalr r4
    1430:	84 6e 00 04 	l.lwz r3,0x4(r14)
#ifdef OR1200_INT_CHECK_BIT_CLEARED
      // Ensure PICSR bit is cleared, incase it takes some time for the
      // IRQ line going low to propagate back to PIC
      while (mfspr(SPR_PICSR) & (0x00000001L << i))
#endif
	      mtspr(SPR_PICSR, mfspr(SPR_PICSR) & ~(0x00000001L << i));
    1434:	04 00 00 20 	l.jal 14b4 <mfspr>
    1438:	9c 60 48 02 	l.addi r3,r0,0x4802
    143c:	ac 90 ff ff 	l.xori r4,r16,0xffffffff
    1440:	9c 60 48 02 	l.addi r3,r0,0x4802
    1444:	04 00 00 19 	l.jal 14a8 <mtspr>
    1448:	e0 8b 20 03 	l.and r4,r11,r4
  unsigned long picsr = mfspr(SPR_PICSR);
  unsigned long i = 0;

  mtspr(SPR_PICSR, 0);

  while(i < 32) {
    144c:	bc 22 00 20 	l.sfnei r2,0x20
    1450:	13 ff ff ee 	l.bf 1408 <int_main+0x44>
    1454:	9d ce 00 08 	l.addi r14,r14,0x8
#endif
	      mtspr(SPR_PICSR, mfspr(SPR_PICSR) & ~(0x00000001L << i));
    }
    i++;
  }
}
    1458:	9c 21 00 18 	l.addi r1,r1,0x18
    145c:	85 21 ff fc 	l.lwz r9,0xfffffffc(r1)
    1460:	84 41 ff e8 	l.lwz r2,0xffffffe8(r1)
    1464:	85 c1 ff ec 	l.lwz r14,0xffffffec(r1)
    1468:	86 01 ff f0 	l.lwz r16,0xfffffff0(r1)
    146c:	86 41 ff f4 	l.lwz r18,0xfffffff4(r1)
    1470:	44 00 48 00 	l.jr r9
    1474:	86 81 ff f8 	l.lwz r20,0xfffffff8(r1)

00001478 <lo_dmmu_en>:
    1478:	b4 60 00 11 	l.mfspr r3,r0,0x11
    147c:	a8 63 00 20 	l.ori r3,r3,0x20
    1480:	c0 00 18 40 	l.mtspr r0,r3,0x40
    1484:	c0 00 48 20 	l.mtspr r0,r9,0x20
    1488:	24 00 00 00 	l.rfe 
    148c:	15 00 00 00 	l.nop 0x0

00001490 <lo_immu_en>:
    1490:	b4 60 00 11 	l.mfspr r3,r0,0x11
    1494:	a8 63 00 40 	l.ori r3,r3,0x40
    1498:	c0 00 18 40 	l.mtspr r0,r3,0x40
    149c:	c0 00 48 20 	l.mtspr r0,r9,0x20
    14a0:	24 00 00 00 	l.rfe 
    14a4:	15 00 00 00 	l.nop 0x0

000014a8 <mtspr>:

/* For writing into SPR. */
void 
mtspr(unsigned long spr, unsigned long value)
{	
  asm("l.mtspr\t\t%0,%1,0": : "r" (spr), "r" (value));
    14a8:	c0 03 20 00 	l.mtspr r3,r4,0x0
}
    14ac:	44 00 48 00 	l.jr r9
    14b0:	15 00 00 00 	l.nop 0x0

000014b4 <mfspr>:
/* For reading SPR. */
unsigned long 
mfspr(unsigned long spr)
{	
  unsigned long value;
  asm("l.mfspr\t\t%0,%1,0" : "=r" (value) : "r" (spr));
    14b4:	b5 63 00 00 	l.mfspr r11,r3,0x0
  return value;
}
    14b8:	44 00 48 00 	l.jr r9
    14bc:	15 00 00 00 	l.nop 0x0

000014c0 <sim_putc>:

/* Print out a character via simulator */
void 
sim_putc(unsigned char c)
{
    14c0:	a4 63 00 ff 	l.andi r3,r3,0xff
  asm("l.addi\tr3,%0,0": :"r" (c));
    14c4:	9c 63 00 00 	l.addi r3,r3,0x0
  asm("l.nop %0": :"K" (NOP_PUTC));
    14c8:	15 00 00 04 	l.nop 0x4
}
    14cc:	44 00 48 00 	l.jr r9
    14d0:	15 00 00 00 	l.nop 0x0

000014d4 <report>:

/* print long */
void 
report(unsigned long value)
{
  asm("l.addi\tr3,%0,0": :"r" (value));
    14d4:	9c 63 00 00 	l.addi r3,r3,0x0
  asm("l.nop %0": :"K" (NOP_REPORT));
    14d8:	15 00 00 02 	l.nop 0x2
}
    14dc:	44 00 48 00 	l.jr r9
    14e0:	15 00 00 00 	l.nop 0x0

000014e4 <exit>:

/* Loops/exits simulation */
void 
exit (int i)
{
  asm("l.add r3,r0,%0": : "r" (i));
    14e4:	e0 60 18 00 	l.add r3,r0,r3
  asm("l.nop %0": :"K" (NOP_EXIT));
    14e8:	15 00 00 01 	l.nop 0x1
    14ec:	00 00 00 00 	l.j 14ec <exit+0x8>
    14f0:	15 00 00 00 	l.nop 0x0

000014f4 <cpu_enable_user_interrupts>:
/* For reading SPR. */
unsigned long 
mfspr(unsigned long spr)
{	
  unsigned long value;
  asm("l.mfspr\t\t%0,%1,0" : "=r" (value) : "r" (spr));
    14f4:	9c 60 00 11 	l.addi r3,r0,0x11
    14f8:	b4 83 00 00 	l.mfspr r4,r3,0x0
/* Enable user interrupts */
void
cpu_enable_user_interrupts(void)
{
  /* Enable interrupts in supervisor register */
  mtspr (SPR_SR, mfspr (SPR_SR) | SPR_SR_IEE);
    14fc:	a8 84 00 04 	l.ori r4,r4,0x4

/* For writing into SPR. */
void 
mtspr(unsigned long spr, unsigned long value)
{	
  asm("l.mtspr\t\t%0,%1,0": : "r" (spr), "r" (value));
    1500:	c0 03 20 00 	l.mtspr r3,r4,0x0
void
cpu_enable_user_interrupts(void)
{
  /* Enable interrupts in supervisor register */
  mtspr (SPR_SR, mfspr (SPR_SR) | SPR_SR_IEE);
}
    1504:	44 00 48 00 	l.jr r9
    1508:	15 00 00 00 	l.nop 0x0

0000150c <cpu_enable_timer>:

/* For writing into SPR. */
void 
mtspr(unsigned long spr, unsigned long value)
{	
  asm("l.mtspr\t\t%0,%1,0": : "r" (spr), "r" (value));
    150c:	18 80 60 07 	l.movhi r4,0x6007
    1510:	9c 60 50 00 	l.addi r3,r0,0x5000
    1514:	a8 84 a1 20 	l.ori r4,r4,0xa120
    1518:	c0 03 20 00 	l.mtspr r3,r4,0x0
/* For reading SPR. */
unsigned long 
mfspr(unsigned long spr)
{	
  unsigned long value;
  asm("l.mfspr\t\t%0,%1,0" : "=r" (value) : "r" (spr));
    151c:	9c 60 00 11 	l.addi r3,r0,0x11
    1520:	b4 83 00 00 	l.mfspr r4,r3,0x0
/* Enable tick timer and interrupt generation */
void 
cpu_enable_timer(void)
{
  mtspr(SPR_TTMR, SPR_TTMR_IE | SPR_TTMR_RT | ((IN_CLK/TICKS_PER_SEC) & SPR_TTMR_PERIOD));
  mtspr(SPR_SR, SPR_SR_TEE | mfspr(SPR_SR));
    1524:	a8 84 00 02 	l.ori r4,r4,0x2

/* For writing into SPR. */
void 
mtspr(unsigned long spr, unsigned long value)
{	
  asm("l.mtspr\t\t%0,%1,0": : "r" (spr), "r" (value));
    1528:	c0 03 20 00 	l.mtspr r3,r4,0x0
cpu_enable_timer(void)
{
  mtspr(SPR_TTMR, SPR_TTMR_IE | SPR_TTMR_RT | ((IN_CLK/TICKS_PER_SEC) & SPR_TTMR_PERIOD));
  mtspr(SPR_SR, SPR_SR_TEE | mfspr(SPR_SR));

}
    152c:	44 00 48 00 	l.jr r9
    1530:	15 00 00 00 	l.nop 0x0

00001534 <cpu_disable_timer>:

/* Disable tick timer and interrupt generation */
void 
cpu_disable_timer(void)
{
    1534:	d7 e1 17 fc 	l.sw 0xfffffffc(r1),r2
  // Disable timer: clear it all!
  mtspr (SPR_SR, mfspr (SPR_SR) & ~SPR_SR_TEE);
    1538:	9c 40 ff fd 	l.addi r2,r0,0xfffffffd
/* For reading SPR. */
unsigned long 
mfspr(unsigned long spr)
{	
  unsigned long value;
  asm("l.mfspr\t\t%0,%1,0" : "=r" (value) : "r" (spr));
    153c:	9c 60 00 11 	l.addi r3,r0,0x11
}

/* Disable tick timer and interrupt generation */
void 
cpu_disable_timer(void)
{
    1540:	9c 21 ff fc 	l.addi r1,r1,0xfffffffc
/* For reading SPR. */
unsigned long 
mfspr(unsigned long spr)
{	
  unsigned long value;
  asm("l.mfspr\t\t%0,%1,0" : "=r" (value) : "r" (spr));
    1544:	b4 83 00 00 	l.mfspr r4,r3,0x0
/* Disable tick timer and interrupt generation */
void 
cpu_disable_timer(void)
{
  // Disable timer: clear it all!
  mtspr (SPR_SR, mfspr (SPR_SR) & ~SPR_SR_TEE);
    1548:	e0 84 10 03 	l.and r4,r4,r2

/* For writing into SPR. */
void 
mtspr(unsigned long spr, unsigned long value)
{	
  asm("l.mtspr\t\t%0,%1,0": : "r" (spr), "r" (value));
    154c:	c0 03 20 00 	l.mtspr r3,r4,0x0
    1550:	9c 80 00 00 	l.addi r4,r0,0x0
    1554:	9c 60 50 00 	l.addi r3,r0,0x5000
    1558:	c0 03 20 00 	l.mtspr r3,r4,0x0
{
  // Disable timer: clear it all!
  mtspr (SPR_SR, mfspr (SPR_SR) & ~SPR_SR_TEE);
  mtspr(SPR_TTMR, 0);

}
    155c:	9c 21 00 04 	l.addi r1,r1,0x4
    1560:	44 00 48 00 	l.jr r9
    1564:	84 41 ff fc 	l.lwz r2,0xfffffffc(r1)

00001568 <cpu_timer_tick>:

/* Timer increment - called by interrupt routine */
void 
cpu_timer_tick(void)
{
  timer_ticks++;
    1568:	18 60 00 00 	l.movhi r3,0x0
    156c:	a8 63 64 d8 	l.ori r3,r3,0x64d8
    1570:	84 83 00 00 	l.lwz r4,0x0(r3)
    1574:	9c 84 00 01 	l.addi r4,r4,0x1
    1578:	d4 03 20 00 	l.sw 0x0(r3),r4

/* For writing into SPR. */
void 
mtspr(unsigned long spr, unsigned long value)
{	
  asm("l.mtspr\t\t%0,%1,0": : "r" (spr), "r" (value));
    157c:	18 80 60 07 	l.movhi r4,0x6007
    1580:	9c 60 50 00 	l.addi r3,r0,0x5000
    1584:	a8 84 a1 20 	l.ori r4,r4,0xa120
    1588:	c0 03 20 00 	l.mtspr r3,r4,0x0
{
  timer_ticks++;
  // Reset timer mode register to interrupt with same interval
  mtspr(SPR_TTMR, SPR_TTMR_IE | SPR_TTMR_RT | 
	((IN_CLK/TICKS_PER_SEC) & SPR_TTMR_PERIOD));
}
    158c:	44 00 48 00 	l.jr r9
    1590:	15 00 00 00 	l.nop 0x0

00001594 <cpu_reset_timer_ticks>:

/* Reset tick counter */
void 
cpu_reset_timer_ticks(void)
{
  timer_ticks=0;
    1594:	18 60 00 00 	l.movhi r3,0x0
}

/* Reset tick counter */
void 
cpu_reset_timer_ticks(void)
{
    1598:	d7 e1 17 fc 	l.sw 0xfffffffc(r1),r2
  timer_ticks=0;
    159c:	a8 63 64 d8 	l.ori r3,r3,0x64d8
    15a0:	9c 40 00 00 	l.addi r2,r0,0x0
}

/* Reset tick counter */
void 
cpu_reset_timer_ticks(void)
{
    15a4:	9c 21 ff fc 	l.addi r1,r1,0xfffffffc
  timer_ticks=0;
    15a8:	d4 03 10 00 	l.sw 0x0(r3),r2
}
    15ac:	9c 21 00 04 	l.addi r1,r1,0x4
    15b0:	44 00 48 00 	l.jr r9
    15b4:	84 41 ff fc 	l.lwz r2,0xfffffffc(r1)

000015b8 <cpu_get_timer_ticks>:

/* Get tick counter */
unsigned long 
cpu_get_timer_ticks(void)
{
    15b8:	18 60 00 00 	l.movhi r3,0x0
    15bc:	a8 63 64 d8 	l.ori r3,r3,0x64d8
  return timer_ticks;
}
    15c0:	44 00 48 00 	l.jr r9
    15c4:	85 63 00 00 	l.lwz r11,0x0(r3)

000015c8 <cpu_sleep_10ms>:

/* Wait for 10ms, assumes CLK_HZ is 100, which it usually is.
   Will be slightly inaccurate!*/
void 
cpu_sleep_10ms(void)
{
    15c8:	00 00 00 00 	l.j 15c8 <cpu_sleep_10ms>
    15cc:	15 00 00 00 	l.nop 0x0

000015d0 <_cache_init>:
    15d0:	b4 60 00 01 	l.mfspr r3,r0,0x1
    15d4:	a4 83 00 04 	l.andi r4,r3,0x4
    15d8:	e4 04 00 00 	l.sfeq r4,r0
    15dc:	10 00 00 21 	l.bf 1660 <_cache_init+0x90>
    15e0:	15 00 00 00 	l.nop 0x0
    15e4:	b4 c0 00 11 	l.mfspr r6,r0,0x11
    15e8:	9c a0 ff ff 	l.addi r5,r0,0xffffffff
    15ec:	ac a5 00 10 	l.xori r5,r5,0x10
    15f0:	e0 a6 28 03 	l.and r5,r6,r5
    15f4:	c0 00 28 11 	l.mtspr r0,r5,0x11
    15f8:	b4 60 00 06 	l.mfspr r3,r0,0x6
    15fc:	a4 83 00 80 	l.andi r4,r3,0x80
    1600:	b8 a4 00 47 	l.srli r5,r4,0x7
    1604:	a8 c0 00 10 	l.ori r6,r0,0x10
    1608:	e1 c6 28 08 	l.sll r14,r6,r5
    160c:	a4 83 00 78 	l.andi r4,r3,0x78
    1610:	b8 a4 00 43 	l.srli r5,r4,0x3
    1614:	a8 c0 00 01 	l.ori r6,r0,0x1
    1618:	e0 e6 28 08 	l.sll r7,r6,r5
    161c:	9c c0 00 00 	l.addi r6,r0,0x0
    1620:	e0 ae 28 08 	l.sll r5,r14,r5
    1624:	c0 80 30 02 	l.mtspr r0,r6,0x2002
    1628:	e4 26 28 00 	l.sfne r6,r5
    162c:	13 ff ff fe 	l.bf 1624 <_cache_init+0x54>
    1630:	e0 c6 70 00 	l.add r6,r6,r14
    1634:	b4 c0 00 11 	l.mfspr r6,r0,0x11
    1638:	a8 c6 00 10 	l.ori r6,r6,0x10
    163c:	c0 00 30 11 	l.mtspr r0,r6,0x11
    1640:	15 00 00 00 	l.nop 0x0
    1644:	15 00 00 00 	l.nop 0x0
    1648:	15 00 00 00 	l.nop 0x0
    164c:	15 00 00 00 	l.nop 0x0
    1650:	15 00 00 00 	l.nop 0x0
    1654:	15 00 00 00 	l.nop 0x0
    1658:	15 00 00 00 	l.nop 0x0
    165c:	15 00 00 00 	l.nop 0x0
    1660:	b4 60 00 01 	l.mfspr r3,r0,0x1
    1664:	a4 83 00 02 	l.andi r4,r3,0x2
    1668:	e4 04 00 00 	l.sfeq r4,r0
    166c:	10 00 00 19 	l.bf 16d0 <_cache_init+0x100>
    1670:	15 00 00 00 	l.nop 0x0
    1674:	b4 c0 00 11 	l.mfspr r6,r0,0x11
    1678:	9c a0 ff ff 	l.addi r5,r0,0xffffffff
    167c:	ac a5 00 08 	l.xori r5,r5,0x8
    1680:	e0 a6 28 03 	l.and r5,r6,r5
    1684:	c0 00 28 11 	l.mtspr r0,r5,0x11
    1688:	b4 60 00 05 	l.mfspr r3,r0,0x5
    168c:	a4 83 00 80 	l.andi r4,r3,0x80
    1690:	b8 a4 00 47 	l.srli r5,r4,0x7
    1694:	a8 c0 00 10 	l.ori r6,r0,0x10
    1698:	e1 c6 28 08 	l.sll r14,r6,r5
    169c:	a4 83 00 78 	l.andi r4,r3,0x78
    16a0:	b8 a4 00 43 	l.srli r5,r4,0x3
    16a4:	a8 c0 00 01 	l.ori r6,r0,0x1
    16a8:	e0 e6 28 08 	l.sll r7,r6,r5
    16ac:	9c c0 00 00 	l.addi r6,r0,0x0
    16b0:	e0 ae 28 08 	l.sll r5,r14,r5
    16b4:	c0 60 30 03 	l.mtspr r0,r6,0x1803
    16b8:	e4 26 28 00 	l.sfne r6,r5
    16bc:	13 ff ff fe 	l.bf 16b4 <_cache_init+0xe4>
    16c0:	e0 c6 70 00 	l.add r6,r6,r14
    16c4:	b4 c0 00 11 	l.mfspr r6,r0,0x11
    16c8:	a8 c6 00 08 	l.ori r6,r6,0x8
    16cc:	c0 00 30 11 	l.mtspr r0,r6,0x11
    16d0:	44 00 48 00 	l.jr r9
    16d4:	15 00 00 00 	l.nop 0x0

000016d8 <uart_init>:
void uart_init(int core)
{
        int divisor;
	float float_divisor;
        /* Reset receiver and transmiter */
        REG8(UART_BASE_ADR[core] + UART_FCR) = UART_FCR_ENABLE_FIFO | UART_FCR_CLEAR_RCVR | UART_FCR_CLEAR_XMIT | UART_FCR_TRIGGER_14;
    16d8:	18 80 00 00 	l.movhi r4,0x0
    16dc:	b8 63 00 02 	l.slli r3,r3,0x2
    16e0:	a8 84 5e bc 	l.ori r4,r4,0x5ebc
 
        /* Set 8 bit char, 1 stop bit, no parity */
        REG8(UART_BASE_ADR[core] + UART_LCR) = UART_LCR_WLEN8 & ~(UART_LCR_STOP | UART_LCR_PARITY);
 
        /* Set baud rate */
	float_divisor = (float) IN_CLK/(16 * UART_BAUDS[core]);
    16e4:	18 a0 00 00 	l.movhi r5,0x0

char tx_buff[UART_TX_BUFF_LEN];
volatile int tx_level, rx_level;

void uart_init(int core)
{
    16e8:	d7 e1 17 f0 	l.sw 0xfffffff0(r1),r2
 
        /* Set 8 bit char, 1 stop bit, no parity */
        REG8(UART_BASE_ADR[core] + UART_LCR) = UART_LCR_WLEN8 & ~(UART_LCR_STOP | UART_LCR_PARITY);
 
        /* Set baud rate */
	float_divisor = (float) IN_CLK/(16 * UART_BAUDS[core]);
    16ec:	a8 a5 5e c0 	l.ori r5,r5,0x5ec0
void uart_init(int core)
{
        int divisor;
	float float_divisor;
        /* Reset receiver and transmiter */
        REG8(UART_BASE_ADR[core] + UART_FCR) = UART_FCR_ENABLE_FIFO | UART_FCR_CLEAR_RCVR | UART_FCR_CLEAR_XMIT | UART_FCR_TRIGGER_14;
    16f0:	e0 43 20 00 	l.add r2,r3,r4

char tx_buff[UART_TX_BUFF_LEN];
volatile int tx_level, rx_level;

void uart_init(int core)
{
    16f4:	d7 e1 77 f4 	l.sw 0xfffffff4(r1),r14
 
        /* Set 8 bit char, 1 stop bit, no parity */
        REG8(UART_BASE_ADR[core] + UART_LCR) = UART_LCR_WLEN8 & ~(UART_LCR_STOP | UART_LCR_PARITY);
 
        /* Set baud rate */
	float_divisor = (float) IN_CLK/(16 * UART_BAUDS[core]);
    16f8:	e0 63 28 00 	l.add r3,r3,r5
void uart_init(int core)
{
        int divisor;
	float float_divisor;
        /* Reset receiver and transmiter */
        REG8(UART_BASE_ADR[core] + UART_FCR) = UART_FCR_ENABLE_FIFO | UART_FCR_CLEAR_RCVR | UART_FCR_CLEAR_XMIT | UART_FCR_TRIGGER_14;
    16fc:	85 c2 00 00 	l.lwz r14,0x0(r2)
 
        /* Set 8 bit char, 1 stop bit, no parity */
        REG8(UART_BASE_ADR[core] + UART_LCR) = UART_LCR_WLEN8 & ~(UART_LCR_STOP | UART_LCR_PARITY);
 
        /* Set baud rate */
	float_divisor = (float) IN_CLK/(16 * UART_BAUDS[core]);
    1700:	84 83 00 00 	l.lwz r4,0x0(r3)
void uart_init(int core)
{
        int divisor;
	float float_divisor;
        /* Reset receiver and transmiter */
        REG8(UART_BASE_ADR[core] + UART_FCR) = UART_FCR_ENABLE_FIFO | UART_FCR_CLEAR_RCVR | UART_FCR_CLEAR_XMIT | UART_FCR_TRIGGER_14;
    1704:	9c a0 ff c7 	l.addi r5,r0,0xffffffc7
    1708:	9c 6e 00 02 	l.addi r3,r14,0x2

char tx_buff[UART_TX_BUFF_LEN];
volatile int tx_level, rx_level;

void uart_init(int core)
{
    170c:	d7 e1 4f fc 	l.sw 0xfffffffc(r1),r9
    1710:	d7 e1 87 f8 	l.sw 0xfffffff8(r1),r16
        int divisor;
	float float_divisor;
        /* Reset receiver and transmiter */
        REG8(UART_BASE_ADR[core] + UART_FCR) = UART_FCR_ENABLE_FIFO | UART_FCR_CLEAR_RCVR | UART_FCR_CLEAR_XMIT | UART_FCR_TRIGGER_14;
    1714:	d8 03 28 00 	l.sb 0x0(r3),r5
 
        /* Disable all interrupts */
        REG8(UART_BASE_ADR[core] + UART_IER) = 0x00;
    1718:	9e 0e 00 01 	l.addi r16,r14,0x1
    171c:	9c 60 00 00 	l.addi r3,r0,0x0
 
        /* Set 8 bit char, 1 stop bit, no parity */
        REG8(UART_BASE_ADR[core] + UART_LCR) = UART_LCR_WLEN8 & ~(UART_LCR_STOP | UART_LCR_PARITY);
 
        /* Set baud rate */
	float_divisor = (float) IN_CLK/(16 * UART_BAUDS[core]);
    1720:	b8 84 00 04 	l.slli r4,r4,0x4
	float float_divisor;
        /* Reset receiver and transmiter */
        REG8(UART_BASE_ADR[core] + UART_FCR) = UART_FCR_ENABLE_FIFO | UART_FCR_CLEAR_RCVR | UART_FCR_CLEAR_XMIT | UART_FCR_TRIGGER_14;
 
        /* Disable all interrupts */
        REG8(UART_BASE_ADR[core] + UART_IER) = 0x00;
    1724:	d8 10 18 00 	l.sb 0x0(r16),r3
 
        /* Set 8 bit char, 1 stop bit, no parity */
        REG8(UART_BASE_ADR[core] + UART_LCR) = UART_LCR_WLEN8 & ~(UART_LCR_STOP | UART_LCR_PARITY);
 
        /* Set baud rate */
	float_divisor = (float) IN_CLK/(16 * UART_BAUDS[core]);
    1728:	18 60 00 00 	l.movhi r3,0x0
    172c:	c8 84 00 04 	lf.itof.s r4,r4
    1730:	a8 63 62 98 	l.ori r3,r3,0x6298
 
        /* Disable all interrupts */
        REG8(UART_BASE_ADR[core] + UART_IER) = 0x00;
 
        /* Set 8 bit char, 1 stop bit, no parity */
        REG8(UART_BASE_ADR[core] + UART_LCR) = UART_LCR_WLEN8 & ~(UART_LCR_STOP | UART_LCR_PARITY);
    1734:	9c 4e 00 03 	l.addi r2,r14,0x3
 
        /* Set baud rate */
	float_divisor = (float) IN_CLK/(16 * UART_BAUDS[core]);
    1738:	84 63 00 00 	l.lwz r3,0x0(r3)
    173c:	c8 83 20 03 	lf.div.s r4,r3,r4
	float_divisor += 0.50f; // Ensure round up
        divisor = (int) float_divisor;
    1740:	18 60 00 00 	l.movhi r3,0x0
 
        /* Disable all interrupts */
        REG8(UART_BASE_ADR[core] + UART_IER) = 0x00;
 
        /* Set 8 bit char, 1 stop bit, no parity */
        REG8(UART_BASE_ADR[core] + UART_LCR) = UART_LCR_WLEN8 & ~(UART_LCR_STOP | UART_LCR_PARITY);
    1744:	9c a0 00 03 	l.addi r5,r0,0x3
 
        /* Set baud rate */
	float_divisor = (float) IN_CLK/(16 * UART_BAUDS[core]);
	float_divisor += 0.50f; // Ensure round up
        divisor = (int) float_divisor;
    1748:	a8 63 62 9c 	l.ori r3,r3,0x629c

char tx_buff[UART_TX_BUFF_LEN];
volatile int tx_level, rx_level;

void uart_init(int core)
{
    174c:	9c 21 ff f0 	l.addi r1,r1,0xfffffff0
        REG8(UART_BASE_ADR[core] + UART_LCR) = UART_LCR_WLEN8 & ~(UART_LCR_STOP | UART_LCR_PARITY);
 
        /* Set baud rate */
	float_divisor = (float) IN_CLK/(16 * UART_BAUDS[core]);
	float_divisor += 0.50f; // Ensure round up
        divisor = (int) float_divisor;
    1750:	84 63 00 00 	l.lwz r3,0x0(r3)
 
        /* Disable all interrupts */
        REG8(UART_BASE_ADR[core] + UART_IER) = 0x00;
 
        /* Set 8 bit char, 1 stop bit, no parity */
        REG8(UART_BASE_ADR[core] + UART_LCR) = UART_LCR_WLEN8 & ~(UART_LCR_STOP | UART_LCR_PARITY);
    1754:	d8 02 28 00 	l.sb 0x0(r2),r5
 
        /* Set baud rate */
	float_divisor = (float) IN_CLK/(16 * UART_BAUDS[core]);
	float_divisor += 0.50f; // Ensure round up
        divisor = (int) float_divisor;
    1758:	04 00 0a 69 	l.jal 40fc <__fixsfsi>
    175c:	c8 64 18 00 	lf.add.s r3,r4,r3
	
        REG8(UART_BASE_ADR[core] + UART_LCR) |= UART_LCR_DLAB;
    1760:	8c 82 00 00 	l.lbz r4,0x0(r2)
        REG8(UART_BASE_ADR[core] + UART_DLL) = divisor & 0x000000ff;
        REG8(UART_BASE_ADR[core] + UART_DLM) = (divisor >> 8) & 0x000000ff;
    1764:	b8 6b 00 88 	l.srai r3,r11,0x8
        /* Set baud rate */
	float_divisor = (float) IN_CLK/(16 * UART_BAUDS[core]);
	float_divisor += 0.50f; // Ensure round up
        divisor = (int) float_divisor;
	
        REG8(UART_BASE_ADR[core] + UART_LCR) |= UART_LCR_DLAB;
    1768:	a8 84 00 80 	l.ori r4,r4,0x80
        REG8(UART_BASE_ADR[core] + UART_DLL) = divisor & 0x000000ff;
    176c:	a5 6b 00 ff 	l.andi r11,r11,0xff
        /* Set baud rate */
	float_divisor = (float) IN_CLK/(16 * UART_BAUDS[core]);
	float_divisor += 0.50f; // Ensure round up
        divisor = (int) float_divisor;
	
        REG8(UART_BASE_ADR[core] + UART_LCR) |= UART_LCR_DLAB;
    1770:	d8 02 20 00 	l.sb 0x0(r2),r4
        REG8(UART_BASE_ADR[core] + UART_DLL) = divisor & 0x000000ff;
        REG8(UART_BASE_ADR[core] + UART_DLM) = (divisor >> 8) & 0x000000ff;
    1774:	a4 63 00 ff 	l.andi r3,r3,0xff
	float_divisor = (float) IN_CLK/(16 * UART_BAUDS[core]);
	float_divisor += 0.50f; // Ensure round up
        divisor = (int) float_divisor;
	
        REG8(UART_BASE_ADR[core] + UART_LCR) |= UART_LCR_DLAB;
        REG8(UART_BASE_ADR[core] + UART_DLL) = divisor & 0x000000ff;
    1778:	d8 0e 58 00 	l.sb 0x0(r14),r11
        REG8(UART_BASE_ADR[core] + UART_DLM) = (divisor >> 8) & 0x000000ff;
    177c:	d8 10 18 00 	l.sb 0x0(r16),r3
        REG8(UART_BASE_ADR[core] + UART_LCR) &= ~(UART_LCR_DLAB);
    1780:	8c 62 00 00 	l.lbz r3,0x0(r2)
    1784:	a4 63 00 7f 	l.andi r3,r3,0x7f
    1788:	d8 02 18 00 	l.sb 0x0(r2),r3
 
        return;
}
    178c:	9c 21 00 10 	l.addi r1,r1,0x10
    1790:	85 21 ff fc 	l.lwz r9,0xfffffffc(r1)
    1794:	84 41 ff f0 	l.lwz r2,0xfffffff0(r1)
    1798:	85 c1 ff f4 	l.lwz r14,0xfffffff4(r1)
    179c:	44 00 48 00 	l.jr r9
    17a0:	86 01 ff f8 	l.lwz r16,0xfffffff8(r1)

000017a4 <uart_putc>:

void uart_putc(int core, char c)
{
    17a4:	d7 e1 17 fc 	l.sw 0xfffffffc(r1),r2
    17a8:	18 40 00 00 	l.movhi r2,0x0
    17ac:	b8 63 00 02 	l.slli r3,r3,0x2
    17b0:	a8 42 5e bc 	l.ori r2,r2,0x5ebc
    17b4:	b8 84 00 18 	l.slli r4,r4,0x18
    17b8:	e0 63 10 00 	l.add r3,r3,r2
    17bc:	9c 21 ff fc 	l.addi r1,r1,0xfffffffc
    17c0:	84 a3 00 00 	l.lwz r5,0x0(r3)
    17c4:	b8 c4 00 98 	l.srai r6,r4,0x18
    17c8:	9c 65 00 05 	l.addi r3,r5,0x5
        unsigned char lsr;
        
        WAIT_FOR_THRE(core);
    17cc:	8c 83 00 00 	l.lbz r4,0x0(r3)
    17d0:	a4 84 00 20 	l.andi r4,r4,0x20
    17d4:	bc 04 00 00 	l.sfeqi r4,0x0
    17d8:	13 ff ff fd 	l.bf 17cc <uart_putc+0x28>
    17dc:	a4 86 00 ff 	l.andi r4,r6,0xff
        REG8(UART_BASE_ADR[core] + UART_TX) = c;
        if(c == '\n') {
    17e0:	bc 26 00 0a 	l.sfnei r6,0xa
void uart_putc(int core, char c)
{
        unsigned char lsr;
        
        WAIT_FOR_THRE(core);
        REG8(UART_BASE_ADR[core] + UART_TX) = c;
    17e4:	d8 05 20 00 	l.sb 0x0(r5),r4
        if(c == '\n') {
    17e8:	0c 00 00 0a 	l.bnf 1810 <uart_putc+0x6c>
    17ec:	15 00 00 00 	l.nop 0x0
          WAIT_FOR_THRE(core);
          REG8(UART_BASE_ADR[core] + UART_TX) = '\r';
        }
        WAIT_FOR_XMITR(core);
    17f0:	8c 83 00 00 	l.lbz r4,0x0(r3)
    17f4:	a4 84 00 60 	l.andi r4,r4,0x60
    17f8:	bc 24 00 60 	l.sfnei r4,0x60
    17fc:	13 ff ff fd 	l.bf 17f0 <uart_putc+0x4c>
    1800:	15 00 00 00 	l.nop 0x0
}
    1804:	9c 21 00 04 	l.addi r1,r1,0x4
    1808:	44 00 48 00 	l.jr r9
    180c:	84 41 ff fc 	l.lwz r2,0xfffffffc(r1)
        unsigned char lsr;
        
        WAIT_FOR_THRE(core);
        REG8(UART_BASE_ADR[core] + UART_TX) = c;
        if(c == '\n') {
          WAIT_FOR_THRE(core);
    1810:	8c 83 00 00 	l.lbz r4,0x0(r3)
    1814:	a4 84 00 20 	l.andi r4,r4,0x20
    1818:	bc 04 00 00 	l.sfeqi r4,0x0
    181c:	13 ff ff fd 	l.bf 1810 <uart_putc+0x6c>
    1820:	9c 40 00 0d 	l.addi r2,r0,0xd
          REG8(UART_BASE_ADR[core] + UART_TX) = '\r';
    1824:	d8 05 10 00 	l.sb 0x0(r5),r2
    1828:	03 ff ff f2 	l.j 17f0 <uart_putc+0x4c>
    182c:	15 00 00 00 	l.nop 0x0

00001830 <uart_putc_noblock>:
        WAIT_FOR_XMITR(core);
}

// Only used when we know THRE is empty, typically in interrupt
void uart_putc_noblock(int core, char c)
{
    1830:	d7 e1 17 fc 	l.sw 0xfffffffc(r1),r2
  REG8(UART_BASE_ADR[core] + UART_TX) = c;
    1834:	18 40 00 00 	l.movhi r2,0x0
    1838:	b8 63 00 02 	l.slli r3,r3,0x2
    183c:	a8 42 5e bc 	l.ori r2,r2,0x5ebc
    1840:	a4 84 00 ff 	l.andi r4,r4,0xff
    1844:	e0 63 10 00 	l.add r3,r3,r2
        WAIT_FOR_XMITR(core);
}

// Only used when we know THRE is empty, typically in interrupt
void uart_putc_noblock(int core, char c)
{
    1848:	9c 21 ff fc 	l.addi r1,r1,0xfffffffc
  REG8(UART_BASE_ADR[core] + UART_TX) = c;
    184c:	84 63 00 00 	l.lwz r3,0x0(r3)
    1850:	d8 03 20 00 	l.sb 0x0(r3),r4
}
    1854:	9c 21 00 04 	l.addi r1,r1,0x4
    1858:	44 00 48 00 	l.jr r9
    185c:	84 41 ff fc 	l.lwz r2,0xfffffffc(r1)

00001860 <uart_getc>:


char uart_getc(int core)
{
    1860:	d7 e1 17 fc 	l.sw 0xfffffffc(r1),r2
    1864:	18 40 00 00 	l.movhi r2,0x0
    1868:	b8 63 00 02 	l.slli r3,r3,0x2
    186c:	a8 42 5e bc 	l.ori r2,r2,0x5ebc
    1870:	9c 21 ff fc 	l.addi r1,r1,0xfffffffc
    1874:	e0 63 10 00 	l.add r3,r3,r2
    1878:	84 a3 00 00 	l.lwz r5,0x0(r3)
    187c:	9c 85 00 05 	l.addi r4,r5,0x5
        unsigned char lsr;
        char c;

        WAIT_FOR_CHAR(core);
    1880:	8c 64 00 00 	l.lbz r3,0x0(r4)
    1884:	a4 63 00 01 	l.andi r3,r3,0x1
    1888:	bc 03 00 00 	l.sfeqi r3,0x0
    188c:	13 ff ff fd 	l.bf 1880 <uart_getc+0x20>
    1890:	15 00 00 00 	l.nop 0x0
        c = REG8(UART_BASE_ADR[core] + UART_RX);
    1894:	8d 65 00 00 	l.lbz r11,0x0(r5)
    1898:	b9 6b 00 18 	l.slli r11,r11,0x18
        return c;
}
    189c:	9c 21 00 04 	l.addi r1,r1,0x4
    18a0:	b9 6b 00 98 	l.srai r11,r11,0x18
    18a4:	44 00 48 00 	l.jr r9
    18a8:	84 41 ff fc 	l.lwz r2,0xfffffffc(r1)

000018ac <uart_check_for_char>:

int uart_check_for_char(int core)
{
    18ac:	d7 e1 17 fc 	l.sw 0xfffffffc(r1),r2
  return CHECK_FOR_CHAR(core);
    18b0:	18 40 00 00 	l.movhi r2,0x0
    18b4:	b8 63 00 02 	l.slli r3,r3,0x2
    18b8:	a8 42 5e bc 	l.ori r2,r2,0x5ebc
        c = REG8(UART_BASE_ADR[core] + UART_RX);
        return c;
}

int uart_check_for_char(int core)
{
    18bc:	9c 21 ff fc 	l.addi r1,r1,0xfffffffc
  return CHECK_FOR_CHAR(core);
    18c0:	e0 63 10 00 	l.add r3,r3,r2
    18c4:	84 63 00 00 	l.lwz r3,0x0(r3)
    18c8:	9c 63 00 05 	l.addi r3,r3,0x5
    18cc:	8d 63 00 00 	l.lbz r11,0x0(r3)
}
    18d0:	9c 21 00 04 	l.addi r1,r1,0x4
    18d4:	a5 6b 00 01 	l.andi r11,r11,0x1
    18d8:	44 00 48 00 	l.jr r9
    18dc:	84 41 ff fc 	l.lwz r2,0xfffffffc(r1)

000018e0 <uart_rxint_enable>:
    
void uart_rxint_enable(int core)
{
    18e0:	d7 e1 17 fc 	l.sw 0xfffffffc(r1),r2
  REG8(UART_BASE_ADR[core] + UART_IER) |= UART_IER_RDI;
    18e4:	18 40 00 00 	l.movhi r2,0x0
    18e8:	b8 63 00 02 	l.slli r3,r3,0x2
    18ec:	a8 42 5e bc 	l.ori r2,r2,0x5ebc
{
  return CHECK_FOR_CHAR(core);
}
    
void uart_rxint_enable(int core)
{
    18f0:	9c 21 ff fc 	l.addi r1,r1,0xfffffffc
  REG8(UART_BASE_ADR[core] + UART_IER) |= UART_IER_RDI;
    18f4:	e0 63 10 00 	l.add r3,r3,r2
    18f8:	84 63 00 00 	l.lwz r3,0x0(r3)
    18fc:	9c 63 00 01 	l.addi r3,r3,0x1
    1900:	8c 83 00 00 	l.lbz r4,0x0(r3)
    1904:	a8 84 00 01 	l.ori r4,r4,0x1
    1908:	d8 03 20 00 	l.sb 0x0(r3),r4
}
    190c:	9c 21 00 04 	l.addi r1,r1,0x4
    1910:	44 00 48 00 	l.jr r9
    1914:	84 41 ff fc 	l.lwz r2,0xfffffffc(r1)

00001918 <uart_rxint_disable>:

void uart_rxint_disable(int core)
{
    1918:	d7 e1 17 fc 	l.sw 0xfffffffc(r1),r2
  REG8(UART_BASE_ADR[core] + UART_IER) &= ~(UART_IER_RDI);
    191c:	18 40 00 00 	l.movhi r2,0x0
    1920:	b8 63 00 02 	l.slli r3,r3,0x2
    1924:	a8 42 5e bc 	l.ori r2,r2,0x5ebc
{
  REG8(UART_BASE_ADR[core] + UART_IER) |= UART_IER_RDI;
}

void uart_rxint_disable(int core)
{
    1928:	9c 21 ff fc 	l.addi r1,r1,0xfffffffc
  REG8(UART_BASE_ADR[core] + UART_IER) &= ~(UART_IER_RDI);
    192c:	e0 63 10 00 	l.add r3,r3,r2
    1930:	84 63 00 00 	l.lwz r3,0x0(r3)
    1934:	9c 63 00 01 	l.addi r3,r3,0x1
    1938:	8c 83 00 00 	l.lbz r4,0x0(r3)
    193c:	a4 84 00 fe 	l.andi r4,r4,0xfe
    1940:	d8 03 20 00 	l.sb 0x0(r3),r4
}
    1944:	9c 21 00 04 	l.addi r1,r1,0x4
    1948:	44 00 48 00 	l.jr r9
    194c:	84 41 ff fc 	l.lwz r2,0xfffffffc(r1)

00001950 <uart_txint_enable>:

void uart_txint_enable(int core)
{
    1950:	d7 e1 17 fc 	l.sw 0xfffffffc(r1),r2
  REG8(UART_BASE_ADR[core] + UART_IER) |= UART_IER_THRI;
    1954:	18 40 00 00 	l.movhi r2,0x0
    1958:	b8 63 00 02 	l.slli r3,r3,0x2
    195c:	a8 42 5e bc 	l.ori r2,r2,0x5ebc
{
  REG8(UART_BASE_ADR[core] + UART_IER) &= ~(UART_IER_RDI);
}

void uart_txint_enable(int core)
{
    1960:	9c 21 ff fc 	l.addi r1,r1,0xfffffffc
  REG8(UART_BASE_ADR[core] + UART_IER) |= UART_IER_THRI;
    1964:	e0 63 10 00 	l.add r3,r3,r2
    1968:	84 63 00 00 	l.lwz r3,0x0(r3)
    196c:	9c 63 00 01 	l.addi r3,r3,0x1
    1970:	8c 83 00 00 	l.lbz r4,0x0(r3)
    1974:	a8 84 00 02 	l.ori r4,r4,0x2
    1978:	d8 03 20 00 	l.sb 0x0(r3),r4
}
    197c:	9c 21 00 04 	l.addi r1,r1,0x4
    1980:	44 00 48 00 	l.jr r9
    1984:	84 41 ff fc 	l.lwz r2,0xfffffffc(r1)

00001988 <uart_txint_disable>:

void uart_txint_disable(int core)
{
    1988:	d7 e1 17 fc 	l.sw 0xfffffffc(r1),r2
  REG8(UART_BASE_ADR[core] + UART_IER) &= ~(UART_IER_THRI);
    198c:	18 40 00 00 	l.movhi r2,0x0
    1990:	b8 63 00 02 	l.slli r3,r3,0x2
    1994:	a8 42 5e bc 	l.ori r2,r2,0x5ebc
{
  REG8(UART_BASE_ADR[core] + UART_IER) |= UART_IER_THRI;
}

void uart_txint_disable(int core)
{
    1998:	9c 21 ff fc 	l.addi r1,r1,0xfffffffc
  REG8(UART_BASE_ADR[core] + UART_IER) &= ~(UART_IER_THRI);
    199c:	e0 63 10 00 	l.add r3,r3,r2
    19a0:	84 63 00 00 	l.lwz r3,0x0(r3)
    19a4:	9c 63 00 01 	l.addi r3,r3,0x1
    19a8:	8c 83 00 00 	l.lbz r4,0x0(r3)
    19ac:	a4 84 00 fd 	l.andi r4,r4,0xfd
    19b0:	d8 03 20 00 	l.sb 0x0(r3),r4
}
    19b4:	9c 21 00 04 	l.addi r1,r1,0x4
    19b8:	44 00 48 00 	l.jr r9
    19bc:	84 41 ff fc 	l.lwz r2,0xfffffffc(r1)

000019c0 <uart_get_iir>:

char uart_get_iir(int core)
{
    19c0:	d7 e1 17 fc 	l.sw 0xfffffffc(r1),r2
  return REG8(UART_BASE_ADR[core] + UART_IIR);
    19c4:	18 40 00 00 	l.movhi r2,0x0
    19c8:	b8 63 00 02 	l.slli r3,r3,0x2
    19cc:	a8 42 5e bc 	l.ori r2,r2,0x5ebc
{
  REG8(UART_BASE_ADR[core] + UART_IER) &= ~(UART_IER_THRI);
}

char uart_get_iir(int core)
{
    19d0:	9c 21 ff fc 	l.addi r1,r1,0xfffffffc
  return REG8(UART_BASE_ADR[core] + UART_IIR);
    19d4:	e0 63 10 00 	l.add r3,r3,r2
    19d8:	84 63 00 00 	l.lwz r3,0x0(r3)
    19dc:	9c 63 00 02 	l.addi r3,r3,0x2
    19e0:	8d 63 00 00 	l.lbz r11,0x0(r3)
    19e4:	b9 6b 00 18 	l.slli r11,r11,0x18
}
    19e8:	9c 21 00 04 	l.addi r1,r1,0x4
    19ec:	b9 6b 00 98 	l.srai r11,r11,0x18
    19f0:	44 00 48 00 	l.jr r9
    19f4:	84 41 ff fc 	l.lwz r2,0xfffffffc(r1)

000019f8 <uart_get_lsr>:


char uart_get_lsr(int core)
{
    19f8:	d7 e1 17 fc 	l.sw 0xfffffffc(r1),r2
  return REG8(UART_BASE_ADR[core] + UART_LSR);
    19fc:	18 40 00 00 	l.movhi r2,0x0
    1a00:	b8 63 00 02 	l.slli r3,r3,0x2
    1a04:	a8 42 5e bc 	l.ori r2,r2,0x5ebc
  return REG8(UART_BASE_ADR[core] + UART_IIR);
}


char uart_get_lsr(int core)
{
    1a08:	9c 21 ff fc 	l.addi r1,r1,0xfffffffc
  return REG8(UART_BASE_ADR[core] + UART_LSR);
    1a0c:	e0 63 10 00 	l.add r3,r3,r2
    1a10:	84 63 00 00 	l.lwz r3,0x0(r3)
    1a14:	9c 63 00 05 	l.addi r3,r3,0x5
    1a18:	8d 63 00 00 	l.lbz r11,0x0(r3)
    1a1c:	b9 6b 00 18 	l.slli r11,r11,0x18
}
    1a20:	9c 21 00 04 	l.addi r1,r1,0x4
    1a24:	b9 6b 00 98 	l.srai r11,r11,0x18
    1a28:	44 00 48 00 	l.jr r9
    1a2c:	84 41 ff fc 	l.lwz r2,0xfffffffc(r1)

00001a30 <uart_get_msr>:


char uart_get_msr(int core)
{
    1a30:	d7 e1 17 fc 	l.sw 0xfffffffc(r1),r2
  return REG8(UART_BASE_ADR[core] + UART_MSR);
    1a34:	18 40 00 00 	l.movhi r2,0x0
    1a38:	b8 63 00 02 	l.slli r3,r3,0x2
    1a3c:	a8 42 5e bc 	l.ori r2,r2,0x5ebc
  return REG8(UART_BASE_ADR[core] + UART_LSR);
}


char uart_get_msr(int core)
{
    1a40:	9c 21 ff fc 	l.addi r1,r1,0xfffffffc
  return REG8(UART_BASE_ADR[core] + UART_MSR);
    1a44:	e0 63 10 00 	l.add r3,r3,r2
    1a48:	84 63 00 00 	l.lwz r3,0x0(r3)
    1a4c:	9c 63 00 06 	l.addi r3,r3,0x6
    1a50:	8d 63 00 00 	l.lbz r11,0x0(r3)
    1a54:	b9 6b 00 18 	l.slli r11,r11,0x18
}
    1a58:	9c 21 00 04 	l.addi r1,r1,0x4
    1a5c:	b9 6b 00 98 	l.srai r11,r11,0x18
    1a60:	44 00 48 00 	l.jr r9
    1a64:	84 41 ff fc 	l.lwz r2,0xfffffffc(r1)

00001a68 <print_back_to_string>:

// Function which prints back to the buffer, ptr, len bytes
// returns 1 if it should finish up, otherwise 0 to continue
int 
print_back_to_string(char * ptr, int len, size_t * n, int * ret, char ** stream)
{
    1a68:	d7 e1 17 f0 	l.sw 0xfffffff0(r1),r2
#define MIN(a, b) ((a) < (b) ? (a) : (b))
  do {
    int length = MIN( (int) len, *n - *ret - 1);
    1a6c:	84 45 00 00 	l.lwz r2,0x0(r5)
    1a70:	84 a6 00 00 	l.lwz r5,0x0(r6)
    1a74:	9c 42 ff ff 	l.addi r2,r2,0xffffffff

// Function which prints back to the buffer, ptr, len bytes
// returns 1 if it should finish up, otherwise 0 to continue
int 
print_back_to_string(char * ptr, int len, size_t * n, int * ret, char ** stream)
{
    1a78:	d7 e1 77 f4 	l.sw 0xfffffff4(r1),r14
    1a7c:	d7 e1 87 f8 	l.sw 0xfffffff8(r1),r16
    1a80:	d7 e1 4f fc 	l.sw 0xfffffffc(r1),r9
    1a84:	aa 04 00 00 	l.ori r16,r4,0x0
#define MIN(a, b) ((a) < (b) ? (a) : (b))
  do {
    int length = MIN( (int) len, *n - *ret - 1);
    1a88:	e0 42 28 02 	l.sub r2,r2,r5

// Function which prints back to the buffer, ptr, len bytes
// returns 1 if it should finish up, otherwise 0 to continue
int 
print_back_to_string(char * ptr, int len, size_t * n, int * ret, char ** stream)
{
    1a8c:	9c 21 ff f0 	l.addi r1,r1,0xfffffff0
    1a90:	a9 c6 00 00 	l.ori r14,r6,0x0
#define MIN(a, b) ((a) < (b) ? (a) : (b))
  do {
    int length = MIN( (int) len, *n - *ret - 1);
    1a94:	e4 a2 80 00 	l.sfleu r2,r16
    1a98:	10 00 00 03 	l.bf 1aa4 <print_back_to_string+0x3c>
    1a9c:	a8 83 00 00 	l.ori r4,r3,0x0
    1aa0:	a8 50 00 00 	l.ori r2,r16,0x0
    memcpy(*stream + *ret, ptr, length);
    1aa4:	84 67 00 00 	l.lwz r3,0x0(r7)
    1aa8:	e0 63 28 00 	l.add r3,r3,r5
    1aac:	04 00 03 b2 	l.jal 2974 <memcpy>
    1ab0:	a8 a2 00 00 	l.ori r5,r2,0x0
    if (length < (int)len) {
    1ab4:	e5 b0 10 00 	l.sfles r16,r2
    1ab8:	10 00 00 06 	l.bf 1ad0 <print_back_to_string+0x68>
    1abc:	9d 60 00 00 	l.addi r11,r0,0x0
      *ret += length;
    1ac0:	84 6e 00 00 	l.lwz r3,0x0(r14)
      return 1; // finish up
    1ac4:	9d 60 00 01 	l.addi r11,r0,0x1
#define MIN(a, b) ((a) < (b) ? (a) : (b))
  do {
    int length = MIN( (int) len, *n - *ret - 1);
    memcpy(*stream + *ret, ptr, length);
    if (length < (int)len) {
      *ret += length;
    1ac8:	e0 43 10 00 	l.add r2,r3,r2
    1acc:	d4 0e 10 00 	l.sw 0x0(r14),r2
    }

  } while(0);
    
    return 0;
}
    1ad0:	9c 21 00 10 	l.addi r1,r1,0x10
    1ad4:	85 21 ff fc 	l.lwz r9,0xfffffffc(r1)
    1ad8:	84 41 ff f0 	l.lwz r2,0xfffffff0(r1)
    1adc:	85 c1 ff f4 	l.lwz r14,0xfffffff4(r1)
    1ae0:	44 00 48 00 	l.jr r9
    1ae4:	86 01 ff f8 	l.lwz r16,0xfffffff8(r1)

00001ae8 <vfnprintf>:

//externC int 
int
//vfnprintf ( FILE *stream, size_t n, const char *format, va_list arg) __THROW
vfnprintf ( char *stream, size_t n, const char *format, va_list arg)
{
    1ae8:	d7 e1 17 d4 	l.sw 0xffffffd4(r1),r2
    1aec:	d7 e1 77 d8 	l.sw 0xffffffd8(r1),r14
    1af0:	d7 e1 97 e0 	l.sw 0xffffffe0(r1),r18
    1af4:	d7 e1 a7 e4 	l.sw 0xffffffe4(r1),r20
    1af8:	d7 e1 e7 f4 	l.sw 0xfffffff4(r1),r28
    1afc:	d7 e1 4f fc 	l.sw 0xfffffffc(r1),r9
    1b00:	d7 e1 87 dc 	l.sw 0xffffffdc(r1),r16
    1b04:	d7 e1 b7 e8 	l.sw 0xffffffe8(r1),r22
    1b08:	d7 e1 c7 ec 	l.sw 0xffffffec(r1),r24
    1b0c:	d7 e1 d7 f0 	l.sw 0xfffffff0(r1),r26
    1b10:	d7 e1 f7 f8 	l.sw 0xfffffff8(r1),r30
    1b14:	9c 21 ff 80 	l.addi r1,r1,0xffffff80
   (unsigned long)va_arg(arg, unsigned int))

  
  xdigs = (char *) NULL;  // stop compiler whinging
  fmt = (char *)format;
  ret = 0;
    1b18:	9c 40 00 00 	l.addi r2,r0,0x0

//externC int 
int
//vfnprintf ( FILE *stream, size_t n, const char *format, va_list arg) __THROW
vfnprintf ( char *stream, size_t n, const char *format, va_list arg)
{
    1b1c:	d4 01 18 20 	l.sw 0x20(r1),r3
   flags&SHORTINT ? (unsigned long)(unsigned short)va_arg(arg, int) :	\
   flags&SIZET ? va_arg(arg, size_t) :					\
   (unsigned long)va_arg(arg, unsigned int))

  
  xdigs = (char *) NULL;  // stop compiler whinging
    1b20:	9c 60 00 00 	l.addi r3,r0,0x0
  fmt = (char *)format;
  ret = 0;
    1b24:	d4 01 10 4c 	l.sw 0x4c(r1),r2

//externC int 
int
//vfnprintf ( FILE *stream, size_t n, const char *format, va_list arg) __THROW
vfnprintf ( char *stream, size_t n, const char *format, va_list arg)
{
    1b28:	d4 01 20 1c 	l.sw 0x1c(r1),r4
    1b2c:	ab 86 00 00 	l.ori r28,r6,0x0
   flags&SIZET ? va_arg(arg, size_t) :					\
   (unsigned long)va_arg(arg, unsigned int))

  
  xdigs = (char *) NULL;  // stop compiler whinging
  fmt = (char *)format;
    1b30:	a8 45 00 00 	l.ori r2,r5,0x0
   flags&SHORTINT ? (unsigned long)(unsigned short)va_arg(arg, int) :	\
   flags&SIZET ? va_arg(arg, size_t) :					\
   (unsigned long)va_arg(arg, unsigned int))

  
  xdigs = (char *) NULL;  // stop compiler whinging
    1b34:	d4 01 18 18 	l.sw 0x18(r1),r3
	break;
      }
    }
    if ((y = fmt - cp) != 0) { // y is length of string to copy out just now
      //PRINT(cp, y); // Copy macro 
      if(print_back_to_string(cp, y, &n, &ret, &stream)) goto done; // Copy macro 
    1b38:	9e 81 00 1c 	l.addi r20,r1,0x1c
    1b3c:	9d c1 00 4c 	l.addi r14,r1,0x4c
    1b40:	9e 41 00 20 	l.addi r18,r1,0x20
  /*
   * Scan the format for conversions (`%' character).
   */
  for (;;) {
    cp = (char *)fmt; // char pointer - set to where we begin looking from
    while ((x = ((wc = *fmt) != 0))) { // While, wc=next char and x is one while there's still chars left
    1b44:	00 00 00 03 	l.j 1b50 <vfnprintf+0x68>
    1b48:	aa 02 00 00 	l.ori r16,r2,0x0
      fmt += x; // increment the pointer to the char
    1b4c:	aa 05 00 00 	l.ori r16,r5,0x0
  /*
   * Scan the format for conversions (`%' character).
   */
  for (;;) {
    cp = (char *)fmt; // char pointer - set to where we begin looking from
    while ((x = ((wc = *fmt) != 0))) { // While, wc=next char and x is one while there's still chars left
    1b50:	90 90 00 00 	l.lbs r4,0x0(r16)
    1b54:	bc 24 00 00 	l.sfnei r4,0x0
    1b58:	0c 00 00 bd 	l.bnf 1e4c <vfnprintf+0x364>
    1b5c:	bc 04 00 25 	l.sfeqi r4,0x25
      fmt += x; // increment the pointer to the char
      if (wc == '%') { // check if it's the beginning of
    1b60:	0f ff ff fb 	l.bnf 1b4c <vfnprintf+0x64>
    1b64:	9c b0 00 01 	l.addi r5,r16,0x1
  /*
   * Scan the format for conversions (`%' character).
   */
  for (;;) {
    cp = (char *)fmt; // char pointer - set to where we begin looking from
    while ((x = ((wc = *fmt) != 0))) { // While, wc=next char and x is one while there's still chars left
    1b68:	9f 00 00 01 	l.addi r24,r0,0x1
      if (wc == '%') { // check if it's the beginning of
	fmt--; // Decrement the char pointer, actually
	break;
      }
    }
    if ((y = fmt - cp) != 0) { // y is length of string to copy out just now
    1b6c:	e2 d0 10 02 	l.sub r22,r16,r2
    1b70:	bc 36 00 00 	l.sfnei r22,0x0
    1b74:	10 00 00 96 	l.bf 1dcc <vfnprintf+0x2e4>
    1b78:	84 c1 00 4c 	l.lwz r6,0x4c(r1)
    1b7c:	a9 66 00 00 	l.ori r11,r6,0x0
      //PRINT(cp, y); // Copy macro 
      if(print_back_to_string(cp, y, &n, &ret, &stream)) goto done; // Copy macro 
      ret += y; // increment return chars
    }
    if ((x <= 0) || (ret >= (int)n))  // @@@ this check with n isn't good enough
    1b80:	bc 38 00 00 	l.sfnei r24,0x0
    1b84:	0c 00 02 f3 	l.bnf 2750 <_min_stack+0x750>
    1b88:	84 41 00 1c 	l.lwz r2,0x1c(r1)
    1b8c:	e5 a2 58 00 	l.sfles r2,r11
    1b90:	10 00 00 82 	l.bf 1d98 <vfnprintf+0x2b0>
    1b94:	9c 80 00 00 	l.addi r4,r0,0x0
    
    flags = 0;
    dprec = 0;
    width = 0;
    prec = -1;
    sign = '\0';
    1b98:	9c a0 00 00 	l.addi r5,r0,0x0
      if(print_back_to_string(cp, y, &n, &ret, &stream)) goto done; // Copy macro 
      ret += y; // increment return chars
    }
    if ((x <= 0) || (ret >= (int)n))  // @@@ this check with n isn't good enough
      goto done;
    fmt++;          /* skip over '%' */
    1b9c:	9c 50 00 01 	l.addi r2,r16,0x1
    
    flags = 0;
    dprec = 0;
    width = 0;
    prec = -1;
    sign = '\0';
    1ba0:	d8 01 20 53 	l.sb 0x53(r1),r4
    fmt++;          /* skip over '%' */
    
    flags = 0;
    dprec = 0;
    width = 0;
    prec = -1;
    1ba4:	9f c0 ff ff 	l.addi r30,r0,0xffffffff
    sign = '\0';
    1ba8:	93 42 00 00 	l.lbs r26,0x0(r2)
    }
    if ((x <= 0) || (ret >= (int)n))  // @@@ this check with n isn't good enough
      goto done;
    fmt++;          /* skip over '%' */
    
    flags = 0;
    1bac:	aa c5 00 00 	l.ori r22,r5,0x0
    dprec = 0;
    width = 0;
    1bb0:	d4 01 28 10 	l.sw 0x10(r1),r5
    prec = -1;
    sign = '\0';
    
  rflag:          ch = *fmt++;
    1bb4:	9c 42 00 01 	l.addi r2,r2,0x1
  reswitch:       switch (ch) {
    1bb8:	9c 9a ff e0 	l.addi r4,r26,0xffffffe0
    1bbc:	bc 44 00 5a 	l.sfgtui r4,0x5a
    1bc0:	0c 00 00 13 	l.bnf 1c0c <vfnprintf+0x124>
    1bc4:	19 00 00 00 	l.movhi r8,0x0
      break;
    case 'z':
      flags |= SIZET;
      goto rflag;
    default:        /* "%?" prints ?, unless ? is NUL */
      if (ch == '\0')
    1bc8:	bc 3a 00 00 	l.sfnei r26,0x0
    1bcc:	0c 00 02 e1 	l.bnf 2750 <_min_stack+0x750>
    1bd0:	9c 80 00 00 	l.addi r4,r0,0x0
	goto done;
      /* pretend it was %c with argument ch */
      cp = buf;
      *cp = ch;
      size = 1;
    1bd4:	9d 00 00 01 	l.addi r8,r0,0x1
    default:        /* "%?" prints ?, unless ? is NUL */
      if (ch == '\0')
	goto done;
      /* pretend it was %c with argument ch */
      cp = buf;
      *cp = ch;
    1bd8:	d8 01 d0 24 	l.sb 0x24(r1),r26
      size = 1;
      sign = '\0';
    1bdc:	d8 01 20 53 	l.sb 0x53(r1),r4
      if (ch == '\0')
	goto done;
      /* pretend it was %c with argument ch */
      cp = buf;
      *cp = ch;
      size = 1;
    1be0:	d4 01 40 04 	l.sw 0x4(r1),r8
      goto rflag;
    default:        /* "%?" prints ?, unless ? is NUL */
      if (ch == '\0')
	goto done;
      /* pretend it was %c with argument ch */
      cp = buf;
    1be4:	9f 01 00 24 	l.addi r24,r1,0x24
#ifdef CYGSEM_LIBC_STDIO_PRINTF_FLOATING_POINT
    fieldsz = size + fpprec;
#else
    fieldsz = size;
#endif
    if (sign)
    1be8:	9f c0 00 00 	l.addi r30,r0,0x0
      fieldsz++;
    else if (flags & HEXPREFIX)
    1bec:	85 01 00 04 	l.lwz r8,0x4(r1)
    1bf0:	a4 96 00 02 	l.andi r4,r22,0x2
    1bf4:	bc 04 00 00 	l.sfeqi r4,0x0
    1bf8:	10 00 00 47 	l.bf 1d14 <vfnprintf+0x22c>
    1bfc:	d4 01 40 00 	l.sw 0x0(r1),r8
      fieldsz+= 2;
    1c00:	9c 68 00 02 	l.addi r3,r8,0x2
    1c04:	00 00 00 44 	l.j 1d14 <vfnprintf+0x22c>
    1c08:	d4 01 18 00 	l.sw 0x0(r1),r3
    width = 0;
    prec = -1;
    sign = '\0';
    
  rflag:          ch = *fmt++;
  reswitch:       switch (ch) {
    1c0c:	b8 84 00 02 	l.slli r4,r4,0x2
    1c10:	a9 08 5e c4 	l.ori r8,r8,0x5ec4
    1c14:	e0 84 40 00 	l.add r4,r4,r8
    1c18:	84 84 00 00 	l.lwz r4,0x0(r4)
    1c1c:	44 00 20 00 	l.jr r4
    1c20:	15 00 00 00 	l.nop 0x0
	  *va_arg(arg, size_t *) = ret;
	else
	  *va_arg(arg, int *) = ret;
      continue;       /* no output */
    case 'O':
      flags |= LONGINT;
    1c24:	aa d6 00 10 	l.ori r22,r22,0x10
      /*FALLTHROUGH*/
    case 'o':
      _uquad = UARG();
    1c28:	a5 76 00 20 	l.andi r11,r22,0x20
    1c2c:	bc 0b 00 00 	l.sfeqi r11,0x0
    1c30:	10 00 00 89 	l.bf 1e54 <vfnprintf+0x36c>
    1c34:	a4 76 00 10 	l.andi r3,r22,0x10
    1c38:	85 7c 00 00 	l.lwz r11,0x0(r28)
    1c3c:	86 1c 00 04 	l.lwz r16,0x4(r28)
      base = OCT;
    1c40:	9c c0 00 00 	l.addi r6,r0,0x0
      break;
    case 'U':
      flags |= LONGINT;
      /*FALLTHROUGH*/
    case 'u':
      _uquad = UARG();
    1c44:	e0 6b 80 04 	l.or r3,r11,r16
    1c48:	9f 9c 00 08 	l.addi r28,r28,0x8
    1c4c:	e0 80 18 02 	l.sub r4,r0,r3
    1c50:	e0 64 18 04 	l.or r3,r4,r3
    1c54:	b8 83 00 5f 	l.srli r4,r3,0x1f
      /* leading 0x/X only if non-zero */
      if (flags & ALT && _uquad != 0)
	flags |= HEXPREFIX;
      
      /* unsigned conversions */
    nosign:                 sign = '\0';
    1c58:	9c 60 00 00 	l.addi r3,r0,0x0
    1c5c:	9c a0 00 00 	l.addi r5,r0,0x0
    1c60:	d8 01 18 53 	l.sb 0x53(r1),r3
      /*
       * ``... diouXx conversions ... if a precision is
       * specified, the 0 flag will be ignored.''
       *      -- ANSI X3J11
       */
    number:                 if ((dprec = prec) >= 0)
    1c64:	bd 9e 00 00 	l.sfltsi r30,0x0
    1c68:	10 00 00 03 	l.bf 1c74 <vfnprintf+0x18c>
    1c6c:	9d 00 ff 7f 	l.addi r8,r0,0xffffff7f
	flags &= ~ZEROPAD;
    1c70:	e2 d6 40 03 	l.and r22,r22,r8
       * ``The result of converting a zero value with an
       * explicit precision of zero is no characters.''
       *      -- ANSI X3J11
       */
      cp = buf + BUF;
      if (_uquad != 0 || prec != 0) {
    1c74:	e0 e0 f0 02 	l.sub r7,r0,r30
    1c78:	e0 e7 f0 04 	l.or r7,r7,r30
    1c7c:	bd 87 00 00 	l.sfltsi r7,0x0
    1c80:	10 00 00 05 	l.bf 1c94 <vfnprintf+0x1ac>
    1c84:	bc 06 00 01 	l.sfeqi r6,0x1
    1c88:	bc 04 00 00 	l.sfeqi r4,0x0
    1c8c:	10 00 01 c7 	l.bf 23a8 <_min_stack+0x3a8>
    1c90:	bc 06 00 01 	l.sfeqi r6,0x1
	/*
	 * Unsigned mod is hard, and unsigned mod
	 * by a constant is easier than that by
	 * a variable; hence this switch.
	 */
	switch (base) {
    1c94:	10 00 02 0e 	l.bf 24cc <_min_stack+0x4cc>
    1c98:	bc 06 00 02 	l.sfeqi r6,0x2
    1c9c:	10 00 01 fb 	l.bf 2488 <_min_stack+0x488>
    1ca0:	ab 0e 00 00 	l.ori r24,r14,0x0
	case OCT:
	  do {
	    *--cp = to_char(_uquad & 7);
	    _uquad >>= 3;
    1ca4:	b8 b0 00 43 	l.srli r5,r16,0x3
    1ca8:	b8 cb 00 1d 	l.slli r6,r11,0x1d
	 * a variable; hence this switch.
	 */
	switch (base) {
	case OCT:
	  do {
	    *--cp = to_char(_uquad & 7);
    1cac:	a6 10 00 07 	l.andi r16,r16,0x7
	    _uquad >>= 3;
    1cb0:	b9 6b 00 43 	l.srli r11,r11,0x3
	 * a variable; hence this switch.
	 */
	switch (base) {
	case OCT:
	  do {
	    *--cp = to_char(_uquad & 7);
    1cb4:	9c 90 00 30 	l.addi r4,r16,0x30
    1cb8:	9f 18 ff ff 	l.addi r24,r24,0xffffffff
	    _uquad >>= 3;
    1cbc:	e2 06 28 04 	l.or r16,r6,r5
	  } while (_uquad);
    1cc0:	e0 ab 80 04 	l.or r5,r11,r16
    1cc4:	bc 25 00 00 	l.sfnei r5,0x0
    1cc8:	13 ff ff f7 	l.bf 1ca4 <vfnprintf+0x1bc>
    1ccc:	d8 18 20 00 	l.sb 0x0(r24),r4
	  /* handle octal leading 0 */
	  if (flags & ALT && *cp != '0')
    1cd0:	a4 76 00 01 	l.andi r3,r22,0x1
    1cd4:	bc 23 00 00 	l.sfnei r3,0x0
    1cd8:	0c 00 01 fa 	l.bnf 24c0 <_min_stack+0x4c0>
    1cdc:	e0 6e c0 02 	l.sub r3,r14,r24
    1ce0:	bc 24 00 30 	l.sfnei r4,0x30
    1ce4:	0c 00 02 a5 	l.bnf 2778 <_min_stack+0x778>
    1ce8:	9d 00 00 30 	l.addi r8,r0,0x30
	    *--cp = '0';
    1cec:	9f 18 ff ff 	l.addi r24,r24,0xffffffff
    1cf0:	e0 6e c0 02 	l.sub r3,r14,r24
    1cf4:	d8 18 40 00 	l.sb 0x0(r24),r8
    1cf8:	d4 01 18 04 	l.sw 0x4(r1),r3
    1cfc:	90 a1 00 53 	l.lbs r5,0x53(r1)
#ifdef CYGSEM_LIBC_STDIO_PRINTF_FLOATING_POINT
    fieldsz = size + fpprec;
#else
    fieldsz = size;
#endif
    if (sign)
    1d00:	bc 05 00 00 	l.sfeqi r5,0x0
    1d04:	13 ff ff ba 	l.bf 1bec <vfnprintf+0x104>
    1d08:	84 61 00 04 	l.lwz r3,0x4(r1)
      fieldsz++;
    1d0c:	9c 63 00 01 	l.addi r3,r3,0x1
    1d10:	d4 01 18 00 	l.sw 0x0(r1),r3
    else if (flags & HEXPREFIX)
      fieldsz+= 2;
    realsz = dprec > fieldsz ? dprec : fieldsz;
    1d14:	84 81 00 00 	l.lwz r4,0x0(r1)
    1d18:	e5 7e 20 00 	l.sfges r30,r4
    1d1c:	10 00 00 03 	l.bf 1d28 <vfnprintf+0x240>
    1d20:	d4 01 f0 0c 	l.sw 0xc(r1),r30
    1d24:	d4 01 20 0c 	l.sw 0xc(r1),r4
    
    /* right-adjusting blank padding */
    if ((flags & (LADJUST|ZEROPAD)) == 0) {
    1d28:	a5 16 00 84 	l.andi r8,r22,0x84
    1d2c:	bc 28 00 00 	l.sfnei r8,0x0
    1d30:	10 00 01 49 	l.bf 2254 <_min_stack+0x254>
    1d34:	d4 01 40 08 	l.sw 0x8(r1),r8
      if (width - realsz > 0) {
    1d38:	84 61 00 10 	l.lwz r3,0x10(r1)
    1d3c:	84 81 00 0c 	l.lwz r4,0xc(r1)
    1d40:	e0 63 20 02 	l.sub r3,r3,r4
    1d44:	bd a3 00 00 	l.sflesi r3,0x0
    1d48:	10 00 01 43 	l.bf 2254 <_min_stack+0x254>
    1d4c:	d4 01 18 14 	l.sw 0x14(r1),r3
	PAD(width - realsz, blanks);
    1d50:	bd a3 00 10 	l.sflesi r3,0x10
    1d54:	10 00 01 32 	l.bf 221c <_min_stack+0x21c>
    1d58:	aa 03 00 00 	l.ori r16,r3,0x0
    1d5c:	00 00 00 05 	l.j 1d70 <vfnprintf+0x288>
    1d60:	18 60 00 00 	l.movhi r3,0x0
    1d64:	bd 50 00 10 	l.sfgtsi r16,0x10
    1d68:	0c 00 01 2f 	l.bnf 2224 <_min_stack+0x224>
    1d6c:	18 60 00 00 	l.movhi r3,0x0
    1d70:	9c 80 00 10 	l.addi r4,r0,0x10
    1d74:	a8 63 63 bc 	l.ori r3,r3,0x63bc
    1d78:	a8 b4 00 00 	l.ori r5,r20,0x0
    1d7c:	a8 ce 00 00 	l.ori r6,r14,0x0
    1d80:	07 ff ff 3a 	l.jal 1a68 <print_back_to_string>
    1d84:	a8 f2 00 00 	l.ori r7,r18,0x0
    1d88:	bc 0b 00 00 	l.sfeqi r11,0x0
    1d8c:	13 ff ff f6 	l.bf 1d64 <vfnprintf+0x27c>
    1d90:	9e 10 ff f0 	l.addi r16,r16,0xfffffff0
    
    /* left-adjusting padding (always blank) */
    if (flags & LADJUST) {
      if (width - realsz > 0) {
	PAD(width - realsz, blanks);
	ret += width - realsz;
    1d94:	85 61 00 4c 	l.lwz r11,0x4c(r1)
  
 done:
 error:
  return ret;// remove this error stuff (((Cyg_OutputStream *) stream)->get_error() ? EOF : ret);
  /* NOTREACHED */
}
    1d98:	9c 21 00 80 	l.addi r1,r1,0x80
    1d9c:	85 21 ff fc 	l.lwz r9,0xfffffffc(r1)
    1da0:	84 41 ff d4 	l.lwz r2,0xffffffd4(r1)
    1da4:	85 c1 ff d8 	l.lwz r14,0xffffffd8(r1)
    1da8:	86 01 ff dc 	l.lwz r16,0xffffffdc(r1)
    1dac:	86 41 ff e0 	l.lwz r18,0xffffffe0(r1)
    1db0:	86 81 ff e4 	l.lwz r20,0xffffffe4(r1)
    1db4:	86 c1 ff e8 	l.lwz r22,0xffffffe8(r1)
    1db8:	87 01 ff ec 	l.lwz r24,0xffffffec(r1)
    1dbc:	87 41 ff f0 	l.lwz r26,0xfffffff0(r1)
    1dc0:	87 81 ff f4 	l.lwz r28,0xfffffff4(r1)
    1dc4:	44 00 48 00 	l.jr r9
    1dc8:	87 c1 ff f8 	l.lwz r30,0xfffffff8(r1)
	break;
      }
    }
    if ((y = fmt - cp) != 0) { // y is length of string to copy out just now
      //PRINT(cp, y); // Copy macro 
      if(print_back_to_string(cp, y, &n, &ret, &stream)) goto done; // Copy macro 
    1dcc:	a8 62 00 00 	l.ori r3,r2,0x0
    1dd0:	a8 96 00 00 	l.ori r4,r22,0x0
    1dd4:	a8 b4 00 00 	l.ori r5,r20,0x0
    1dd8:	a8 ce 00 00 	l.ori r6,r14,0x0
    1ddc:	07 ff ff 23 	l.jal 1a68 <print_back_to_string>
    1de0:	a8 f2 00 00 	l.ori r7,r18,0x0
    1de4:	bc 2b 00 00 	l.sfnei r11,0x0
    1de8:	13 ff ff eb 	l.bf 1d94 <vfnprintf+0x2ac>
    1dec:	84 c1 00 4c 	l.lwz r6,0x4c(r1)
      ret += y; // increment return chars
    1df0:	e1 76 30 00 	l.add r11,r22,r6
    1df4:	a8 cb 00 00 	l.ori r6,r11,0x0
    1df8:	03 ff ff 62 	l.j 1b80 <vfnprintf+0x98>
    1dfc:	d4 01 58 4c 	l.sw 0x4c(r1),r11
      } else
	size = strlen(cp);
      sign = '\0';
      break;
    case 'U':
      flags |= LONGINT;
    1e00:	aa d6 00 10 	l.ori r22,r22,0x10
      /*FALLTHROUGH*/
    case 'u':
      _uquad = UARG();
    1e04:	a5 76 00 20 	l.andi r11,r22,0x20
    1e08:	bc 0b 00 00 	l.sfeqi r11,0x0
    1e0c:	0c 00 00 20 	l.bnf 1e8c <vfnprintf+0x3a4>
    1e10:	a4 76 00 10 	l.andi r3,r22,0x10
    1e14:	bc 03 00 00 	l.sfeqi r3,0x0
    1e18:	0c 00 01 ef 	l.bnf 25d4 <_min_stack+0x5d4>
    1e1c:	15 00 00 00 	l.nop 0x0
    1e20:	a4 96 00 40 	l.andi r4,r22,0x40
    1e24:	bc 04 00 00 	l.sfeqi r4,0x0
    1e28:	0c 00 02 2f 	l.bnf 26e4 <_min_stack+0x6e4>
    1e2c:	a9 63 00 00 	l.ori r11,r3,0x0
    1e30:	a5 76 02 00 	l.andi r11,r22,0x200
    1e34:	bc 0b 00 00 	l.sfeqi r11,0x0
    1e38:	10 00 01 e7 	l.bf 25d4 <_min_stack+0x5d4>
    1e3c:	15 00 00 00 	l.nop 0x0
    1e40:	86 1c 00 00 	l.lwz r16,0x0(r28)
    1e44:	00 00 01 e5 	l.j 25d8 <_min_stack+0x5d8>
    1e48:	a9 64 00 00 	l.ori r11,r4,0x0
  /*
   * Scan the format for conversions (`%' character).
   */
  for (;;) {
    cp = (char *)fmt; // char pointer - set to where we begin looking from
    while ((x = ((wc = *fmt) != 0))) { // While, wc=next char and x is one while there's still chars left
    1e4c:	03 ff ff 48 	l.j 1b6c <vfnprintf+0x84>
    1e50:	ab 04 00 00 	l.ori r24,r4,0x0
      continue;       /* no output */
    case 'O':
      flags |= LONGINT;
      /*FALLTHROUGH*/
    case 'o':
      _uquad = UARG();
    1e54:	bc 03 00 00 	l.sfeqi r3,0x0
    1e58:	0c 00 01 d8 	l.bnf 25b8 <_min_stack+0x5b8>
    1e5c:	15 00 00 00 	l.nop 0x0
    1e60:	a4 96 00 40 	l.andi r4,r22,0x40
    1e64:	bc 04 00 00 	l.sfeqi r4,0x0
    1e68:	0c 00 02 26 	l.bnf 2700 <_min_stack+0x700>
    1e6c:	a9 63 00 00 	l.ori r11,r3,0x0
    1e70:	a5 76 02 00 	l.andi r11,r22,0x200
    1e74:	bc 0b 00 00 	l.sfeqi r11,0x0
    1e78:	10 00 01 d0 	l.bf 25b8 <_min_stack+0x5b8>
    1e7c:	15 00 00 00 	l.nop 0x0
    1e80:	86 1c 00 00 	l.lwz r16,0x0(r28)
    1e84:	00 00 01 ce 	l.j 25bc <_min_stack+0x5bc>
    1e88:	a9 64 00 00 	l.ori r11,r4,0x0
      break;
    case 'U':
      flags |= LONGINT;
      /*FALLTHROUGH*/
    case 'u':
      _uquad = UARG();
    1e8c:	85 7c 00 00 	l.lwz r11,0x0(r28)
    1e90:	86 1c 00 04 	l.lwz r16,0x4(r28)
      base = DEC;
    1e94:	03 ff ff 6c 	l.j 1c44 <vfnprintf+0x15c>
    1e98:	9c c0 00 01 	l.addi r6,r0,0x1
       * ``A negative field width argument is taken as a
       * - flag followed by a positive field width.''
       *      -- ANSI X3J11
       * They don't exclude field widths read from args.
       */
      if ((width = va_arg(arg, int)) >= 0)
    1e9c:	84 9c 00 00 	l.lwz r4,0x0(r28)
    1ea0:	9f 9c 00 04 	l.addi r28,r28,0x4
    1ea4:	bd 84 00 00 	l.sfltsi r4,0x0
    1ea8:	0c 00 00 93 	l.bnf 20f4 <_min_stack+0xf4>
    1eac:	d4 01 20 10 	l.sw 0x10(r1),r4
	goto rflag;
      width = -width;
    1eb0:	85 01 00 10 	l.lwz r8,0x10(r1)
    1eb4:	e1 00 40 02 	l.sub r8,r0,r8
    1eb8:	d4 01 40 10 	l.sw 0x10(r1),r8
      /* FALLTHROUGH */
    case '-':
      flags |= LADJUST;
    1ebc:	aa d6 00 04 	l.ori r22,r22,0x4
      goto rflag;
    1ec0:	03 ff ff 3d 	l.j 1bb4 <vfnprintf+0xcc>
    1ec4:	93 42 00 00 	l.lbs r26,0x0(r2)
      }
      size = buf + BUF - cp;
    skipsize:
      break;
    case 'z':
      flags |= SIZET;
    1ec8:	aa d6 02 00 	l.ori r22,r22,0x200
    1ecc:	03 ff ff 3a 	l.j 1bb4 <vfnprintf+0xcc>
    1ed0:	93 42 00 00 	l.lbs r26,0x0(r2)
      goto reswitch;
    case 'h':
      flags |= SHORTINT;
      goto rflag;
    case 'l':
      if (*fmt == 'l') {
    1ed4:	93 42 00 00 	l.lbs r26,0x0(r2)
    1ed8:	bc 3a 00 6c 	l.sfnei r26,0x6c
    1edc:	0c 00 02 1f 	l.bnf 2758 <_min_stack+0x758>
    1ee0:	15 00 00 00 	l.nop 0x0
	fmt++;
	flags |= QUADINT;
      } else {
	flags |= LONGINT;
    1ee4:	03 ff ff 34 	l.j 1bb4 <vfnprintf+0xcc>
    1ee8:	aa d6 00 10 	l.ori r22,r22,0x10
      sign = '\0';
      break;
      
    case 'n':
#ifndef _NO_LONGLONG
      if (flags & QUADINT)
    1eec:	a4 76 00 20 	l.andi r3,r22,0x20
    1ef0:	bc 03 00 00 	l.sfeqi r3,0x0
    1ef4:	10 00 01 e9 	l.bf 2698 <_min_stack+0x698>
    1ef8:	d8 01 28 53 	l.sb 0x53(r1),r5
	*va_arg(arg, quad_t *) = ret;
    1efc:	b8 86 00 9f 	l.srai r4,r6,0x1f
    1f00:	84 7c 00 00 	l.lwz r3,0x0(r28)
    1f04:	9f 9c 00 04 	l.addi r28,r28,0x4
    1f08:	d4 03 30 04 	l.sw 0x4(r3),r6
    1f0c:	03 ff ff 0e 	l.j 1b44 <vfnprintf+0x5c>
    1f10:	d4 03 20 00 	l.sw 0x0(r3),r4
       * of printable characters, in an implementation-
       * defined manner.''
       *      -- ANSI X3J11
       */
      /* NOSTRICT */
      _uquad = (unsigned long)va_arg(arg, void *);
    1f14:	86 1c 00 00 	l.lwz r16,0x0(r28)
      base = HEX;
      xdigs = (char *)"0123456789abcdef";
    1f18:	18 60 00 00 	l.movhi r3,0x0
      flags |= HEXPREFIX;
    1f1c:	e0 80 80 02 	l.sub r4,r0,r16
       *      -- ANSI X3J11
       */
      /* NOSTRICT */
      _uquad = (unsigned long)va_arg(arg, void *);
      base = HEX;
      xdigs = (char *)"0123456789abcdef";
    1f20:	a8 63 62 b8 	l.ori r3,r3,0x62b8
      flags |= HEXPREFIX;
    1f24:	e0 84 80 04 	l.or r4,r4,r16
       * of printable characters, in an implementation-
       * defined manner.''
       *      -- ANSI X3J11
       */
      /* NOSTRICT */
      _uquad = (unsigned long)va_arg(arg, void *);
    1f28:	9d 60 00 00 	l.addi r11,r0,0x0
      base = HEX;
      xdigs = (char *)"0123456789abcdef";
      flags |= HEXPREFIX;
    1f2c:	aa d6 00 02 	l.ori r22,r22,0x2
       * of printable characters, in an implementation-
       * defined manner.''
       *      -- ANSI X3J11
       */
      /* NOSTRICT */
      _uquad = (unsigned long)va_arg(arg, void *);
    1f30:	9f 9c 00 04 	l.addi r28,r28,0x4
      base = HEX;
      xdigs = (char *)"0123456789abcdef";
      flags |= HEXPREFIX;
    1f34:	b8 84 00 5f 	l.srli r4,r4,0x1f
       *      -- ANSI X3J11
       */
      /* NOSTRICT */
      _uquad = (unsigned long)va_arg(arg, void *);
      base = HEX;
      xdigs = (char *)"0123456789abcdef";
    1f38:	d4 01 18 18 	l.sw 0x18(r1),r3
       * defined manner.''
       *      -- ANSI X3J11
       */
      /* NOSTRICT */
      _uquad = (unsigned long)va_arg(arg, void *);
      base = HEX;
    1f3c:	9c c0 00 02 	l.addi r6,r0,0x2
      xdigs = (char *)"0123456789abcdef";
      flags |= HEXPREFIX;
      ch = 'x';
      goto nosign;
    1f40:	03 ff ff 46 	l.j 1c58 <vfnprintf+0x170>
    1f44:	9f 40 00 78 	l.addi r26,r0,0x78
    1f48:	d8 01 28 53 	l.sb 0x53(r1),r5
    case 's':
      if ((cp = va_arg(arg, char *)) == NULL)
    1f4c:	87 1c 00 00 	l.lwz r24,0x0(r28)
    1f50:	bc 18 00 00 	l.sfeqi r24,0x0
    1f54:	10 00 02 0d 	l.bf 2788 <_min_stack+0x788>
    1f58:	9e 1c 00 04 	l.addi r16,r28,0x4
	cp = (char *)"(null)";
      if (prec >= 0) {
    1f5c:	bd 9e 00 00 	l.sfltsi r30,0x0
    1f60:	10 00 02 02 	l.bf 2768 <_min_stack+0x768>
    1f64:	a8 78 00 00 	l.ori r3,r24,0x0
	/*
	 * can't use strlen; can only look for the
	 * NUL in the first `prec' characters, and
	 * strlen() will go further.
	 */
	char *p = (char *)memchr(cp, 0, prec);
    1f68:	9c 80 00 00 	l.addi r4,r0,0x0
    1f6c:	a8 be 00 00 	l.ori r5,r30,0x0
    1f70:	04 00 02 9c 	l.jal 29e0 <memchr>
    1f74:	d4 01 f0 04 	l.sw 0x4(r1),r30
	
	if (p != NULL) {
    1f78:	bc 0b 00 00 	l.sfeqi r11,0x0
    1f7c:	10 00 00 07 	l.bf 1f98 <vfnprintf+0x4b0>
    1f80:	9c 80 00 00 	l.addi r4,r0,0x0
	  size = p - cp;
    1f84:	e1 6b c0 02 	l.sub r11,r11,r24
    1f88:	e5 ab f0 00 	l.sfles r11,r30
    1f8c:	0c 00 01 d2 	l.bnf 26d4 <_min_stack+0x6d4>
    1f90:	d4 01 58 04 	l.sw 0x4(r1),r11
	    size = prec;
	} else
	  size = prec;
      } else
	size = strlen(cp);
      sign = '\0';
    1f94:	9c 80 00 00 	l.addi r4,r0,0x0
      xdigs = (char *)"0123456789abcdef";
      flags |= HEXPREFIX;
      ch = 'x';
      goto nosign;
    case 's':
      if ((cp = va_arg(arg, char *)) == NULL)
    1f98:	ab 90 00 00 	l.ori r28,r16,0x0
	} else
	  size = prec;
      } else
	size = strlen(cp);
      sign = '\0';
      break;
    1f9c:	03 ff ff 13 	l.j 1be8 <vfnprintf+0x100>
    1fa0:	d8 01 20 53 	l.sb 0x53(r1),r4
      goto nosign;
    case 'X':
      xdigs = (char *)"0123456789ABCDEF";
      goto hex;
    case 'x':
      xdigs = (char *)"0123456789abcdef";
    1fa4:	19 00 00 00 	l.movhi r8,0x0
    hex:                    _uquad = UARG();
    1fa8:	a5 76 00 20 	l.andi r11,r22,0x20
      goto nosign;
    case 'X':
      xdigs = (char *)"0123456789ABCDEF";
      goto hex;
    case 'x':
      xdigs = (char *)"0123456789abcdef";
    1fac:	a9 08 62 b8 	l.ori r8,r8,0x62b8
    hex:                    _uquad = UARG();
    1fb0:	bc 0b 00 00 	l.sfeqi r11,0x0
    1fb4:	10 00 00 71 	l.bf 2178 <_min_stack+0x178>
    1fb8:	d4 01 40 18 	l.sw 0x18(r1),r8
    1fbc:	85 7c 00 00 	l.lwz r11,0x0(r28)
    1fc0:	86 1c 00 04 	l.lwz r16,0x4(r28)
    1fc4:	9f 9c 00 08 	l.addi r28,r28,0x8
      base = HEX;
      /* leading 0x/X only if non-zero */
      if (flags & ALT && _uquad != 0)
    1fc8:	e0 6b 80 04 	l.or r3,r11,r16
    1fcc:	e0 80 18 02 	l.sub r4,r0,r3
    1fd0:	e0 64 18 04 	l.or r3,r4,r3
    1fd4:	b8 83 00 5f 	l.srli r4,r3,0x1f
    1fd8:	bc 04 00 00 	l.sfeqi r4,0x0
    1fdc:	13 ff ff 1f 	l.bf 1c58 <vfnprintf+0x170>
    1fe0:	9c c0 00 02 	l.addi r6,r0,0x2
    1fe4:	a4 76 00 01 	l.andi r3,r22,0x1
    1fe8:	bc 03 00 00 	l.sfeqi r3,0x0
    1fec:	13 ff ff 1c 	l.bf 1c5c <vfnprintf+0x174>
    1ff0:	9c 60 00 00 	l.addi r3,r0,0x0
	flags |= HEXPREFIX;
    1ff4:	aa d6 00 02 	l.ori r22,r22,0x2
    1ff8:	03 ff ff 19 	l.j 1c5c <vfnprintf+0x174>
    1ffc:	9c 80 00 01 	l.addi r4,r0,0x1
      } else {
	flags |= LONGINT;
      }
      goto rflag;
    case 'q':
      flags |= QUADINT;
    2000:	aa d6 00 20 	l.ori r22,r22,0x20
      goto rflag;
    2004:	03 ff fe ec 	l.j 1bb4 <vfnprintf+0xcc>
    2008:	93 42 00 00 	l.lbs r26,0x0(r2)
	ch = *fmt++;
      } while (is_digit(ch));
      width = x;
      goto reswitch;
    case 'h':
      flags |= SHORTINT;
    200c:	aa d6 00 40 	l.ori r22,r22,0x40
      goto rflag;
    2010:	03 ff fe e9 	l.j 1bb4 <vfnprintf+0xcc>
    2014:	93 42 00 00 	l.lbs r26,0x0(r2)
      /*
       * ``If the space and + flags both appear, the space
       * flag will be ignored.''
       *      -- ANSI X3J11
       */
      if (!sign)
    2018:	bc 25 00 00 	l.sfnei r5,0x0
    201c:	10 00 00 36 	l.bf 20f4 <_min_stack+0xf4>
    2020:	15 00 00 00 	l.nop 0x0
    2024:	93 42 00 00 	l.lbs r26,0x0(r2)
	sign = ' ';
    2028:	03 ff fe e3 	l.j 1bb4 <vfnprintf+0xcc>
    202c:	9c a0 00 20 	l.addi r5,r0,0x20
      goto rflag;
    case '#':
      flags |= ALT;
    2030:	aa d6 00 01 	l.ori r22,r22,0x1
      goto rflag;
    2034:	03 ff fe e0 	l.j 1bb4 <vfnprintf+0xcc>
    2038:	93 42 00 00 	l.lbs r26,0x0(r2)
	goto rflag;
      width = -width;
      /* FALLTHROUGH */
    case '-':
      flags |= LADJUST;
      goto rflag;
    203c:	93 42 00 00 	l.lbs r26,0x0(r2)
    case '+':
      sign = '+';
      goto rflag;
    2040:	03 ff fe dd 	l.j 1bb4 <vfnprintf+0xcc>
    2044:	9c a0 00 2b 	l.addi r5,r0,0x2b
      /*
       * ``Note that 0 is taken as a flag, not as the
       * beginning of a field width.''
       *      -- ANSI X3J11
       */
      flags |= ZEROPAD;
    2048:	aa d6 00 80 	l.ori r22,r22,0x80
      goto rflag;
    204c:	03 ff fe da 	l.j 1bb4 <vfnprintf+0xcc>
    2050:	93 42 00 00 	l.lbs r26,0x0(r2)
    width = 0;
    prec = -1;
    sign = '\0';
    
  rflag:          ch = *fmt++;
  reswitch:       switch (ch) {
    2054:	9c e0 00 00 	l.addi r7,r0,0x0
    2058:	9c 9a ff d0 	l.addi r4,r26,0xffffffd0
      goto rflag;
    case '1': case '2': case '3': case '4':
    case '5': case '6': case '7': case '8': case '9':
      x = 0;
      do {
	x = 10 * x + to_digit(ch);
    205c:	b9 07 00 03 	l.slli r8,r7,0x3
    2060:	e0 e7 38 00 	l.add r7,r7,r7
	ch = *fmt++;
    2064:	93 42 00 00 	l.lbs r26,0x0(r2)
      goto rflag;
    case '1': case '2': case '3': case '4':
    case '5': case '6': case '7': case '8': case '9':
      x = 0;
      do {
	x = 10 * x + to_digit(ch);
    2068:	e0 e7 40 00 	l.add r7,r7,r8
    206c:	e0 e4 38 00 	l.add r7,r4,r7
	ch = *fmt++;
      } while (is_digit(ch));
    2070:	9c 9a ff d0 	l.addi r4,r26,0xffffffd0
    2074:	bc a4 00 09 	l.sfleui r4,0x9
    2078:	13 ff ff f9 	l.bf 205c <_min_stack+0x5c>
    207c:	9c 42 00 01 	l.addi r2,r2,0x1
      goto rflag;
    case '1': case '2': case '3': case '4':
    case '5': case '6': case '7': case '8': case '9':
      x = 0;
      do {
	x = 10 * x + to_digit(ch);
    2080:	03 ff fe ce 	l.j 1bb8 <vfnprintf+0xd0>
    2084:	d4 01 38 10 	l.sw 0x10(r1),r7
      goto rflag;
    case '+':
      sign = '+';
      goto rflag;
    case '.':
      if ((ch = *fmt++) == '*') {
    2088:	93 42 00 00 	l.lbs r26,0x0(r2)
    208c:	bc 1a 00 2a 	l.sfeqi r26,0x2a
    2090:	10 00 00 14 	l.bf 20e0 <_min_stack+0xe0>
    2094:	9c 42 00 01 	l.addi r2,r2,0x1
	x = va_arg(arg, int);
	prec = x < 0 ? -1 : x;
	goto rflag;
      }
      x = 0;
      while (is_digit(ch)) {
    2098:	9c 9a ff d0 	l.addi r4,r26,0xffffffd0
    209c:	bc a4 00 09 	l.sfleui r4,0x9
    20a0:	0f ff fe c6 	l.bnf 1bb8 <vfnprintf+0xd0>
    20a4:	9f c0 00 00 	l.addi r30,r0,0x0
	x = 10 * x + to_digit(ch);
    20a8:	b8 fe 00 03 	l.slli r7,r30,0x3
    20ac:	e3 de f0 00 	l.add r30,r30,r30
	ch = *fmt++;
    20b0:	93 42 00 00 	l.lbs r26,0x0(r2)
	prec = x < 0 ? -1 : x;
	goto rflag;
      }
      x = 0;
      while (is_digit(ch)) {
	x = 10 * x + to_digit(ch);
    20b4:	e3 de 38 00 	l.add r30,r30,r7
    20b8:	e3 de 20 00 	l.add r30,r30,r4
	x = va_arg(arg, int);
	prec = x < 0 ? -1 : x;
	goto rflag;
      }
      x = 0;
      while (is_digit(ch)) {
    20bc:	9c 9a ff d0 	l.addi r4,r26,0xffffffd0
    20c0:	bc a4 00 09 	l.sfleui r4,0x9
    20c4:	13 ff ff f9 	l.bf 20a8 <_min_stack+0xa8>
    20c8:	9c 42 00 01 	l.addi r2,r2,0x1
    20cc:	bd 7e 00 00 	l.sfgesi r30,0x0
    20d0:	13 ff fe bb 	l.bf 1bbc <vfnprintf+0xd4>
    20d4:	9c 9a ff e0 	l.addi r4,r26,0xffffffe0
    20d8:	03 ff fe b9 	l.j 1bbc <vfnprintf+0xd4>
    20dc:	9f c0 ff ff 	l.addi r30,r0,0xffffffff
      sign = '+';
      goto rflag;
    case '.':
      if ((ch = *fmt++) == '*') {
	x = va_arg(arg, int);
	prec = x < 0 ? -1 : x;
    20e0:	87 dc 00 00 	l.lwz r30,0x0(r28)
    20e4:	bd 7e 00 00 	l.sfgesi r30,0x0
    20e8:	10 00 00 03 	l.bf 20f4 <_min_stack+0xf4>
    20ec:	9f 9c 00 04 	l.addi r28,r28,0x4
    20f0:	9f c0 ff ff 	l.addi r30,r0,0xffffffff
    
    flags = 0;
    dprec = 0;
    width = 0;
    prec = -1;
    sign = '\0';
    20f4:	03 ff fe b0 	l.j 1bb4 <vfnprintf+0xcc>
    20f8:	93 42 00 00 	l.lbs r26,0x0(r2)
      *(cp = buf) = va_arg(arg, int);
      size = 1;
      sign = '\0';
      break;
    case 'D':
      flags |= LONGINT;
    20fc:	aa d6 00 10 	l.ori r22,r22,0x10
      /*FALLTHROUGH*/
    case 'd':
    case 'i':
      _uquad = SARG();
    2100:	a4 76 00 20 	l.andi r3,r22,0x20
    2104:	bc 03 00 00 	l.sfeqi r3,0x0
    2108:	10 00 00 38 	l.bf 21e8 <_min_stack+0x1e8>
    210c:	d8 01 28 53 	l.sb 0x53(r1),r5
    2110:	85 7c 00 00 	l.lwz r11,0x0(r28)
    2114:	86 1c 00 04 	l.lwz r16,0x4(r28)
    2118:	9f 9c 00 08 	l.addi r28,r28,0x8
#ifndef _NO_LONGLONG
      if ((quad_t)_uquad < 0)
    211c:	bd 8b 00 00 	l.sfltsi r11,0x0
    2120:	10 00 01 4f 	l.bf 265c <_min_stack+0x65c>
    2124:	e0 6b 80 04 	l.or r3,r11,r16
    2128:	90 a1 00 53 	l.lbs r5,0x53(r1)
    212c:	e0 80 18 02 	l.sub r4,r0,r3
	  {
	    
	    _uquad = -_uquad;
	    sign = '-';
	  }
      base = DEC;
    2130:	9c c0 00 01 	l.addi r6,r0,0x1
      /*FALLTHROUGH*/
    case 'd':
    case 'i':
      _uquad = SARG();
#ifndef _NO_LONGLONG
      if ((quad_t)_uquad < 0)
    2134:	e0 64 18 04 	l.or r3,r4,r3
    2138:	03 ff fe cb 	l.j 1c64 <vfnprintf+0x17c>
    213c:	b8 83 00 5f 	l.srli r4,r3,0x1f
    case 'G':
      // Output nothing at all
      (void) va_arg(arg, double); // take off arg anyway
      cp = "";
      size = 0;
      sign = '\0';
    2140:	9c 80 00 00 	l.addi r4,r0,0x0
    case 'g':
    case 'G':
      // Output nothing at all
      (void) va_arg(arg, double); // take off arg anyway
      cp = "";
      size = 0;
    2144:	9d 00 00 00 	l.addi r8,r0,0x0
    case 'f':
    case 'g':
    case 'G':
      // Output nothing at all
      (void) va_arg(arg, double); // take off arg anyway
      cp = "";
    2148:	1b 00 00 00 	l.movhi r24,0x0
    case 'E':
    case 'f':
    case 'g':
    case 'G':
      // Output nothing at all
      (void) va_arg(arg, double); // take off arg anyway
    214c:	9f 9c 00 08 	l.addi r28,r28,0x8
      cp = "";
      size = 0;
      sign = '\0';
    2150:	d8 01 20 53 	l.sb 0x53(r1),r4
    case 'g':
    case 'G':
      // Output nothing at all
      (void) va_arg(arg, double); // take off arg anyway
      cp = "";
      size = 0;
    2154:	d4 01 40 04 	l.sw 0x4(r1),r8
      sign = '\0';
      break;
    2158:	03 ff fe a4 	l.j 1be8 <vfnprintf+0x100>
    215c:	ab 18 61 7b 	l.ori r24,r24,0x617b
    case 'u':
      _uquad = UARG();
      base = DEC;
      goto nosign;
    case 'X':
      xdigs = (char *)"0123456789ABCDEF";
    2160:	18 60 00 00 	l.movhi r3,0x0
      goto hex;
    case 'x':
      xdigs = (char *)"0123456789abcdef";
    hex:                    _uquad = UARG();
    2164:	a5 76 00 20 	l.andi r11,r22,0x20
    case 'u':
      _uquad = UARG();
      base = DEC;
      goto nosign;
    case 'X':
      xdigs = (char *)"0123456789ABCDEF";
    2168:	a8 63 62 a7 	l.ori r3,r3,0x62a7
      goto hex;
    case 'x':
      xdigs = (char *)"0123456789abcdef";
    hex:                    _uquad = UARG();
    216c:	bc 0b 00 00 	l.sfeqi r11,0x0
    2170:	0f ff ff 93 	l.bnf 1fbc <vfnprintf+0x4d4>
    2174:	d4 01 18 18 	l.sw 0x18(r1),r3
    2178:	a4 76 00 10 	l.andi r3,r22,0x10
    217c:	bc 03 00 00 	l.sfeqi r3,0x0
    2180:	0c 00 01 1c 	l.bnf 25f0 <_min_stack+0x5f0>
    2184:	a4 96 00 40 	l.andi r4,r22,0x40
    2188:	bc 04 00 00 	l.sfeqi r4,0x0
    218c:	0c 00 01 64 	l.bnf 271c <_min_stack+0x71c>
    2190:	a9 63 00 00 	l.ori r11,r3,0x0
    2194:	a5 76 02 00 	l.andi r11,r22,0x200
    2198:	bc 0b 00 00 	l.sfeqi r11,0x0
    219c:	10 00 01 15 	l.bf 25f0 <_min_stack+0x5f0>
    21a0:	15 00 00 00 	l.nop 0x0
    21a4:	86 1c 00 00 	l.lwz r16,0x0(r28)
    21a8:	a9 64 00 00 	l.ori r11,r4,0x0
    21ac:	03 ff ff 87 	l.j 1fc8 <vfnprintf+0x4e0>
    21b0:	9f 9c 00 04 	l.addi r28,r28,0x4
      goto rflag;
    case 'q':
      flags |= QUADINT;
      goto rflag;
    case 'c':
      *(cp = buf) = va_arg(arg, int);
    21b4:	84 7c 00 00 	l.lwz r3,0x0(r28)
      size = 1;
    21b8:	9c 80 00 01 	l.addi r4,r0,0x1
      sign = '\0';
    21bc:	9d 00 00 00 	l.addi r8,r0,0x0
    case 'q':
      flags |= QUADINT;
      goto rflag;
    case 'c':
      *(cp = buf) = va_arg(arg, int);
      size = 1;
    21c0:	d4 01 20 04 	l.sw 0x4(r1),r4
      goto rflag;
    case 'q':
      flags |= QUADINT;
      goto rflag;
    case 'c':
      *(cp = buf) = va_arg(arg, int);
    21c4:	d8 01 18 24 	l.sb 0x24(r1),r3
      size = 1;
      sign = '\0';
    21c8:	d8 01 40 53 	l.sb 0x53(r1),r8
      goto rflag;
    case 'q':
      flags |= QUADINT;
      goto rflag;
    case 'c':
      *(cp = buf) = va_arg(arg, int);
    21cc:	9f 9c 00 04 	l.addi r28,r28,0x4
      size = 1;
      sign = '\0';
      break;
    21d0:	03 ff fe 86 	l.j 1be8 <vfnprintf+0x100>
    21d4:	9f 01 00 24 	l.addi r24,r1,0x24
    case 'D':
      flags |= LONGINT;
      /*FALLTHROUGH*/
    case 'd':
    case 'i':
      _uquad = SARG();
    21d8:	a4 76 00 20 	l.andi r3,r22,0x20
    21dc:	bc 03 00 00 	l.sfeqi r3,0x0
    21e0:	0f ff ff cc 	l.bnf 2110 <_min_stack+0x110>
    21e4:	d8 01 28 53 	l.sb 0x53(r1),r5
    21e8:	a4 76 00 10 	l.andi r3,r22,0x10
    21ec:	bc 03 00 00 	l.sfeqi r3,0x0
    21f0:	0c 00 00 d4 	l.bnf 2540 <_min_stack+0x540>
    21f4:	a4 76 00 40 	l.andi r3,r22,0x40
    21f8:	bc 03 00 00 	l.sfeqi r3,0x0
    21fc:	10 00 00 d1 	l.bf 2540 <_min_stack+0x540>
    2200:	15 00 00 00 	l.nop 0x0
    2204:	85 7c 00 00 	l.lwz r11,0x0(r28)
    2208:	9f 9c 00 04 	l.addi r28,r28,0x4
    220c:	b9 6b 00 10 	l.slli r11,r11,0x10
    2210:	ba 0b 00 90 	l.srai r16,r11,0x10
    2214:	03 ff ff c2 	l.j 211c <_min_stack+0x11c>
    2218:	b9 6b 00 9f 	l.srai r11,r11,0x1f
    realsz = dprec > fieldsz ? dprec : fieldsz;
    
    /* right-adjusting blank padding */
    if ((flags & (LADJUST|ZEROPAD)) == 0) {
      if (width - realsz > 0) {
	PAD(width - realsz, blanks);
    221c:	86 01 00 14 	l.lwz r16,0x14(r1)
    2220:	18 60 00 00 	l.movhi r3,0x0
    2224:	a8 90 00 00 	l.ori r4,r16,0x0
    2228:	a8 63 63 bc 	l.ori r3,r3,0x63bc
    222c:	a8 b4 00 00 	l.ori r5,r20,0x0
    2230:	a8 ce 00 00 	l.ori r6,r14,0x0
    2234:	07 ff fe 0d 	l.jal 1a68 <print_back_to_string>
    2238:	a8 f2 00 00 	l.ori r7,r18,0x0
    223c:	bc 0b 00 00 	l.sfeqi r11,0x0
    2240:	0f ff fe d5 	l.bnf 1d94 <vfnprintf+0x2ac>
    2244:	84 61 00 4c 	l.lwz r3,0x4c(r1)
	ret += width - realsz;
    2248:	85 01 00 14 	l.lwz r8,0x14(r1)
    224c:	e0 63 40 00 	l.add r3,r3,r8
    2250:	d4 01 18 4c 	l.sw 0x4c(r1),r3
      }
    }
    
    /* prefix */
    if (sign) {
    2254:	90 81 00 53 	l.lbs r4,0x53(r1)
    2258:	bc 04 00 00 	l.sfeqi r4,0x0
    225c:	0c 00 00 56 	l.bnf 23b4 <_min_stack+0x3b4>
    2260:	a4 96 00 02 	l.andi r4,r22,0x2
      //PRINT(&sign, 1);
      if(print_back_to_string(&sign, 1, &n, &ret, &stream))goto done;
      ret++;
    } else if (flags & HEXPREFIX) {
    2264:	bc 04 00 00 	l.sfeqi r4,0x0
    2268:	0c 00 00 7a 	l.bnf 2450 <_min_stack+0x450>
    226c:	9d 00 00 30 	l.addi r8,r0,0x30
      if(print_back_to_string(ox, 2, &n, &ret, &stream))goto done;
      ret += 2;
    }
    
    /* right-adjusting zero padding */
    if ((flags & (LADJUST|ZEROPAD)) == ZEROPAD) {
    2270:	84 61 00 08 	l.lwz r3,0x8(r1)
    2274:	bc 23 00 80 	l.sfnei r3,0x80
    2278:	0c 00 00 5f 	l.bnf 23f4 <_min_stack+0x3f4>
    227c:	84 81 00 10 	l.lwz r4,0x10(r1)
	PAD(width - realsz, zeroes);
	ret += width - realsz;
      }
    }
    
    if (dprec - fieldsz > 0) {
    2280:	84 61 00 00 	l.lwz r3,0x0(r1)
    2284:	e3 de 18 02 	l.sub r30,r30,r3
    2288:	bd be 00 00 	l.sflesi r30,0x0
    228c:	10 00 00 20 	l.bf 230c <_min_stack+0x30c>
    2290:	bd be 00 10 	l.sflesi r30,0x10
      /* leading zeroes from decimal precision */
      PAD(dprec - fieldsz, zeroes);
    2294:	10 00 00 12 	l.bf 22dc <_min_stack+0x2dc>
    2298:	aa 1e 00 00 	l.ori r16,r30,0x0
    229c:	00 00 00 05 	l.j 22b0 <_min_stack+0x2b0>
    22a0:	18 60 00 00 	l.movhi r3,0x0
    22a4:	bd 50 00 10 	l.sfgtsi r16,0x10
    22a8:	0c 00 00 0e 	l.bnf 22e0 <_min_stack+0x2e0>
    22ac:	18 60 00 00 	l.movhi r3,0x0
    22b0:	9c 80 00 10 	l.addi r4,r0,0x10
    22b4:	a8 63 63 ac 	l.ori r3,r3,0x63ac
    22b8:	a8 b4 00 00 	l.ori r5,r20,0x0
    22bc:	a8 ce 00 00 	l.ori r6,r14,0x0
    22c0:	07 ff fd ea 	l.jal 1a68 <print_back_to_string>
    22c4:	a8 f2 00 00 	l.ori r7,r18,0x0
    22c8:	bc 0b 00 00 	l.sfeqi r11,0x0
    22cc:	13 ff ff f6 	l.bf 22a4 <_min_stack+0x2a4>
    22d0:	9e 10 ff f0 	l.addi r16,r16,0xfffffff0
    
    /* left-adjusting padding (always blank) */
    if (flags & LADJUST) {
      if (width - realsz > 0) {
	PAD(width - realsz, blanks);
	ret += width - realsz;
    22d4:	03 ff fe b1 	l.j 1d98 <vfnprintf+0x2b0>
    22d8:	85 61 00 4c 	l.lwz r11,0x4c(r1)
      }
    }
    
    if (dprec - fieldsz > 0) {
      /* leading zeroes from decimal precision */
      PAD(dprec - fieldsz, zeroes);
    22dc:	18 60 00 00 	l.movhi r3,0x0
    22e0:	a8 90 00 00 	l.ori r4,r16,0x0
    22e4:	a8 63 63 ac 	l.ori r3,r3,0x63ac
    22e8:	a8 b4 00 00 	l.ori r5,r20,0x0
    22ec:	a8 ce 00 00 	l.ori r6,r14,0x0
    22f0:	07 ff fd de 	l.jal 1a68 <print_back_to_string>
    22f4:	a8 f2 00 00 	l.ori r7,r18,0x0
    22f8:	bc 0b 00 00 	l.sfeqi r11,0x0
    22fc:	0f ff fe a6 	l.bnf 1d94 <vfnprintf+0x2ac>
    2300:	84 61 00 4c 	l.lwz r3,0x4c(r1)
      ret += dprec - fieldsz;
    2304:	e3 c3 f0 00 	l.add r30,r3,r30
    2308:	d4 01 f0 4c 	l.sw 0x4c(r1),r30
    }
    
    /* the string or number proper */
    //PRINT(cp, size);
    if(print_back_to_string(cp,size, &n, &ret, &stream))goto done;
    230c:	a8 78 00 00 	l.ori r3,r24,0x0
    2310:	84 81 00 04 	l.lwz r4,0x4(r1)
    2314:	a8 b4 00 00 	l.ori r5,r20,0x0
    2318:	a8 ce 00 00 	l.ori r6,r14,0x0
    231c:	07 ff fd d3 	l.jal 1a68 <print_back_to_string>
    2320:	a8 f2 00 00 	l.ori r7,r18,0x0
    2324:	bc 0b 00 00 	l.sfeqi r11,0x0
    2328:	0f ff fe 9b 	l.bnf 1d94 <vfnprintf+0x2ac>
    232c:	84 81 00 4c 	l.lwz r4,0x4c(r1)
    ret += size;
    2330:	85 01 00 04 	l.lwz r8,0x4(r1)
    PAD(fpprec, zeroes);
    ret += fpprec;
#endif
    
    /* left-adjusting padding (always blank) */
    if (flags & LADJUST) {
    2334:	a6 d6 00 04 	l.andi r22,r22,0x4
    }
    
    /* the string or number proper */
    //PRINT(cp, size);
    if(print_back_to_string(cp,size, &n, &ret, &stream))goto done;
    ret += size;
    2338:	e0 84 40 00 	l.add r4,r4,r8
    PAD(fpprec, zeroes);
    ret += fpprec;
#endif
    
    /* left-adjusting padding (always blank) */
    if (flags & LADJUST) {
    233c:	bc 16 00 00 	l.sfeqi r22,0x0
    2340:	13 ff fe 01 	l.bf 1b44 <vfnprintf+0x5c>
    2344:	d4 01 20 4c 	l.sw 0x4c(r1),r4
      if (width - realsz > 0) {
    2348:	84 61 00 10 	l.lwz r3,0x10(r1)
    234c:	84 81 00 0c 	l.lwz r4,0xc(r1)
    2350:	e2 c3 20 02 	l.sub r22,r3,r4
    2354:	bd b6 00 00 	l.sflesi r22,0x0
    2358:	13 ff fd fb 	l.bf 1b44 <vfnprintf+0x5c>
    235c:	bd b6 00 10 	l.sflesi r22,0x10
	PAD(width - realsz, blanks);
    2360:	10 00 00 7c 	l.bf 2550 <_min_stack+0x550>
    2364:	aa 16 00 00 	l.ori r16,r22,0x0
    2368:	00 00 00 05 	l.j 237c <_min_stack+0x37c>
    236c:	18 60 00 00 	l.movhi r3,0x0
    2370:	bd 50 00 10 	l.sfgtsi r16,0x10
    2374:	0c 00 00 78 	l.bnf 2554 <_min_stack+0x554>
    2378:	18 60 00 00 	l.movhi r3,0x0
    237c:	9c 80 00 10 	l.addi r4,r0,0x10
    2380:	a8 63 63 bc 	l.ori r3,r3,0x63bc
    2384:	a8 b4 00 00 	l.ori r5,r20,0x0
    2388:	a8 ce 00 00 	l.ori r6,r14,0x0
    238c:	07 ff fd b7 	l.jal 1a68 <print_back_to_string>
    2390:	a8 f2 00 00 	l.ori r7,r18,0x0
    2394:	bc 0b 00 00 	l.sfeqi r11,0x0
    2398:	13 ff ff f6 	l.bf 2370 <_min_stack+0x370>
    239c:	9e 10 ff f0 	l.addi r16,r16,0xfffffff0
	ret += width - realsz;
    23a0:	03 ff fe 7e 	l.j 1d98 <vfnprintf+0x2b0>
    23a4:	85 61 00 4c 	l.lwz r11,0x4c(r1)
       * ``The result of converting a zero value with an
       * explicit precision of zero is no characters.''
       *      -- ANSI X3J11
       */
      cp = buf + BUF;
      if (_uquad != 0 || prec != 0) {
    23a8:	d4 01 20 04 	l.sw 0x4(r1),r4
      /*
       * ``The result of converting a zero value with an
       * explicit precision of zero is no characters.''
       *      -- ANSI X3J11
       */
      cp = buf + BUF;
    23ac:	03 ff fe 55 	l.j 1d00 <vfnprintf+0x218>
    23b0:	ab 0e 00 00 	l.ori r24,r14,0x0
    }
    
    /* prefix */
    if (sign) {
      //PRINT(&sign, 1);
      if(print_back_to_string(&sign, 1, &n, &ret, &stream))goto done;
    23b4:	9c 61 00 53 	l.addi r3,r1,0x53
    23b8:	9c 80 00 01 	l.addi r4,r0,0x1
    23bc:	a8 b4 00 00 	l.ori r5,r20,0x0
    23c0:	a8 ce 00 00 	l.ori r6,r14,0x0
    23c4:	07 ff fd a9 	l.jal 1a68 <print_back_to_string>
    23c8:	a8 f2 00 00 	l.ori r7,r18,0x0
    23cc:	bc 0b 00 00 	l.sfeqi r11,0x0
    23d0:	0f ff fe 71 	l.bnf 1d94 <vfnprintf+0x2ac>
    23d4:	84 61 00 4c 	l.lwz r3,0x4c(r1)
      ret++;
    23d8:	9c 63 00 01 	l.addi r3,r3,0x1
    23dc:	d4 01 18 4c 	l.sw 0x4c(r1),r3
      if(print_back_to_string(ox, 2, &n, &ret, &stream))goto done;
      ret += 2;
    }
    
    /* right-adjusting zero padding */
    if ((flags & (LADJUST|ZEROPAD)) == ZEROPAD) {
    23e0:	84 61 00 08 	l.lwz r3,0x8(r1)
    23e4:	bc 23 00 80 	l.sfnei r3,0x80
    23e8:	13 ff ff a7 	l.bf 2284 <_min_stack+0x284>
    23ec:	84 61 00 00 	l.lwz r3,0x0(r1)
      if (width - realsz > 0) {
    23f0:	84 81 00 10 	l.lwz r4,0x10(r1)
    23f4:	85 01 00 0c 	l.lwz r8,0xc(r1)
    23f8:	e3 44 40 02 	l.sub r26,r4,r8
    23fc:	bd ba 00 00 	l.sflesi r26,0x0
    2400:	13 ff ff a0 	l.bf 2280 <_min_stack+0x280>
    2404:	bd ba 00 10 	l.sflesi r26,0x10
	PAD(width - realsz, zeroes);
    2408:	10 00 00 5f 	l.bf 2584 <_min_stack+0x584>
    240c:	aa 1a 00 00 	l.ori r16,r26,0x0
    2410:	00 00 00 05 	l.j 2424 <_min_stack+0x424>
    2414:	18 60 00 00 	l.movhi r3,0x0
    2418:	bd 50 00 10 	l.sfgtsi r16,0x10
    241c:	0c 00 00 5b 	l.bnf 2588 <_min_stack+0x588>
    2420:	18 60 00 00 	l.movhi r3,0x0
    2424:	9c 80 00 10 	l.addi r4,r0,0x10
    2428:	a8 63 63 ac 	l.ori r3,r3,0x63ac
    242c:	a8 b4 00 00 	l.ori r5,r20,0x0
    2430:	a8 ce 00 00 	l.ori r6,r14,0x0
    2434:	07 ff fd 8d 	l.jal 1a68 <print_back_to_string>
    2438:	a8 f2 00 00 	l.ori r7,r18,0x0
    243c:	bc 0b 00 00 	l.sfeqi r11,0x0
    2440:	13 ff ff f6 	l.bf 2418 <_min_stack+0x418>
    2444:	9e 10 ff f0 	l.addi r16,r16,0xfffffff0
    
    /* left-adjusting padding (always blank) */
    if (flags & LADJUST) {
      if (width - realsz > 0) {
	PAD(width - realsz, blanks);
	ret += width - realsz;
    2448:	03 ff fe 54 	l.j 1d98 <vfnprintf+0x2b0>
    244c:	85 61 00 4c 	l.lwz r11,0x4c(r1)
      ret++;
    } else if (flags & HEXPREFIX) {
      ox[0] = '0';
      ox[1] = ch;
      //PRINT(ox, 2);
      if(print_back_to_string(ox, 2, &n, &ret, &stream))goto done;
    2450:	9c 61 00 50 	l.addi r3,r1,0x50
    2454:	9c 80 00 02 	l.addi r4,r0,0x2
    2458:	a8 b4 00 00 	l.ori r5,r20,0x0
    245c:	a8 ce 00 00 	l.ori r6,r14,0x0
    2460:	a8 f2 00 00 	l.ori r7,r18,0x0
    if (sign) {
      //PRINT(&sign, 1);
      if(print_back_to_string(&sign, 1, &n, &ret, &stream))goto done;
      ret++;
    } else if (flags & HEXPREFIX) {
      ox[0] = '0';
    2464:	d8 01 40 50 	l.sb 0x50(r1),r8
      ox[1] = ch;
      //PRINT(ox, 2);
      if(print_back_to_string(ox, 2, &n, &ret, &stream))goto done;
    2468:	07 ff fd 80 	l.jal 1a68 <print_back_to_string>
    246c:	d8 01 d0 51 	l.sb 0x51(r1),r26
    2470:	bc 0b 00 00 	l.sfeqi r11,0x0
    2474:	0f ff fe 48 	l.bnf 1d94 <vfnprintf+0x2ac>
    2478:	84 61 00 4c 	l.lwz r3,0x4c(r1)
      ret += 2;
    247c:	9c 63 00 02 	l.addi r3,r3,0x2
    2480:	03 ff ff 7c 	l.j 2270 <_min_stack+0x270>
    2484:	d4 01 18 4c 	l.sw 0x4c(r1),r3
	  break;
	  
	case HEX:
	  do {
	    *--cp = xdigs[_uquad & 15];
	    _uquad >>= 4;
    2488:	b8 b0 00 44 	l.srli r5,r16,0x4
	  }
	  break;
	  
	case HEX:
	  do {
	    *--cp = xdigs[_uquad & 15];
    248c:	85 01 00 18 	l.lwz r8,0x18(r1)
    2490:	a6 10 00 0f 	l.andi r16,r16,0xf
	    _uquad >>= 4;
    2494:	b8 cb 00 1c 	l.slli r6,r11,0x1c
	  }
	  break;
	  
	case HEX:
	  do {
	    *--cp = xdigs[_uquad & 15];
    2498:	e0 88 80 00 	l.add r4,r8,r16
	    _uquad >>= 4;
    249c:	b9 6b 00 44 	l.srli r11,r11,0x4
	  }
	  break;
	  
	case HEX:
	  do {
	    *--cp = xdigs[_uquad & 15];
    24a0:	8c 84 00 00 	l.lbz r4,0x0(r4)
    24a4:	9f 18 ff ff 	l.addi r24,r24,0xffffffff
	    _uquad >>= 4;
    24a8:	e2 06 28 04 	l.or r16,r6,r5
	  }
	  break;
	  
	case HEX:
	  do {
	    *--cp = xdigs[_uquad & 15];
    24ac:	d8 18 20 00 	l.sb 0x0(r24),r4
	    _uquad >>= 4;
	  } while (_uquad);
    24b0:	e0 8b 80 04 	l.or r4,r11,r16
    24b4:	bc 24 00 00 	l.sfnei r4,0x0
    24b8:	13 ff ff f4 	l.bf 2488 <_min_stack+0x488>
    24bc:	e0 6e c0 02 	l.sub r3,r14,r24
    24c0:	90 a1 00 53 	l.lbs r5,0x53(r1)
    24c4:	03 ff fe 0f 	l.j 1d00 <vfnprintf+0x218>
    24c8:	d4 01 18 04 	l.sw 0x4(r1),r3
	  if (flags & ALT && *cp != '0')
	    *--cp = '0';
	  break;
	  
	case DEC:
	  if (!(flags & QUADINT)) {
    24cc:	a4 76 00 20 	l.andi r3,r22,0x20
    24d0:	bc 03 00 00 	l.sfeqi r3,0x0
    24d4:	10 00 00 4a 	l.bf 25fc <_min_stack+0x5fc>
    24d8:	bc b0 00 09 	l.sfleui r16,0x9
	      v = next;
	    }
	    *--cp = to_char(v);
	  }
	  else {
	    while (_uquad >= 10) {
    24dc:	bc 2b 00 00 	l.sfnei r11,0x0
    24e0:	0c 00 00 93 	l.bnf 272c <_min_stack+0x72c>
    24e4:	bc 50 00 09 	l.sfgtui r16,0x9
      /*
       * ``The result of converting a zero value with an
       * explicit precision of zero is no characters.''
       *      -- ANSI X3J11
       */
      cp = buf + BUF;
    24e8:	ab 0e 00 00 	l.ori r24,r14,0x0
	    *--cp = to_char(v);
	  }
	  else {
	    while (_uquad >= 10) {
	      /* The following is usually faster than using a modulo */
	      u_quad_t next = _uquad / 10;
    24ec:	a8 90 00 00 	l.ori r4,r16,0x0
    24f0:	9c a0 00 00 	l.addi r5,r0,0x0
    24f4:	a8 6b 00 00 	l.ori r3,r11,0x0
    24f8:	9c c0 00 0a 	l.addi r6,r0,0xa
    24fc:	04 00 01 65 	l.jal 2a90 <__udivdi3>
    2500:	9e 10 00 30 	l.addi r16,r16,0x30
	      *--cp = to_char(_uquad - (next * 10));
    2504:	e0 8c 60 00 	l.add r4,r12,r12
    2508:	9f 18 ff ff 	l.addi r24,r24,0xffffffff
    250c:	b8 a4 00 02 	l.slli r5,r4,0x2
	      v = next;
	    }
	    *--cp = to_char(v);
	  }
	  else {
	    while (_uquad >= 10) {
    2510:	bc 2b 00 00 	l.sfnei r11,0x0
	      /* The following is usually faster than using a modulo */
	      u_quad_t next = _uquad / 10;
	      *--cp = to_char(_uquad - (next * 10));
    2514:	e0 84 28 00 	l.add r4,r4,r5
    2518:	e0 90 20 02 	l.sub r4,r16,r4
	      v = next;
	    }
	    *--cp = to_char(v);
	  }
	  else {
	    while (_uquad >= 10) {
    251c:	0c 00 00 04 	l.bnf 252c <_min_stack+0x52c>
    2520:	d8 18 20 00 	l.sb 0x0(r24),r4
	      /* The following is usually faster than using a modulo */
	      u_quad_t next = _uquad / 10;
    2524:	03 ff ff f2 	l.j 24ec <_min_stack+0x4ec>
    2528:	aa 0c 00 00 	l.ori r16,r12,0x0
	      v = next;
	    }
	    *--cp = to_char(v);
	  }
	  else {
	    while (_uquad >= 10) {
    252c:	bc 4c 00 09 	l.sfgtui r12,0x9
    2530:	13 ff ff fd 	l.bf 2524 <_min_stack+0x524>
    2534:	15 00 00 00 	l.nop 0x0
	      /* The following is usually faster than using a modulo */
	      u_quad_t next = _uquad / 10;
    2538:	00 00 00 7f 	l.j 2734 <_min_stack+0x734>
    253c:	aa 0c 00 00 	l.ori r16,r12,0x0
    case 'D':
      flags |= LONGINT;
      /*FALLTHROUGH*/
    case 'd':
    case 'i':
      _uquad = SARG();
    2540:	86 1c 00 00 	l.lwz r16,0x0(r28)
    2544:	9f 9c 00 04 	l.addi r28,r28,0x4
    2548:	03 ff fe f5 	l.j 211c <_min_stack+0x11c>
    254c:	b9 70 00 9f 	l.srai r11,r16,0x1f
#endif
    
    /* left-adjusting padding (always blank) */
    if (flags & LADJUST) {
      if (width - realsz > 0) {
	PAD(width - realsz, blanks);
    2550:	18 60 00 00 	l.movhi r3,0x0
    2554:	a8 90 00 00 	l.ori r4,r16,0x0
    2558:	a8 63 63 bc 	l.ori r3,r3,0x63bc
    255c:	a8 b4 00 00 	l.ori r5,r20,0x0
    2560:	a8 ce 00 00 	l.ori r6,r14,0x0
    2564:	07 ff fd 41 	l.jal 1a68 <print_back_to_string>
    2568:	a8 f2 00 00 	l.ori r7,r18,0x0
    256c:	bc 0b 00 00 	l.sfeqi r11,0x0
    2570:	0f ff fe 09 	l.bnf 1d94 <vfnprintf+0x2ac>
    2574:	84 61 00 4c 	l.lwz r3,0x4c(r1)
	ret += width - realsz;
    2578:	e2 c3 b0 00 	l.add r22,r3,r22
    257c:	03 ff fd 72 	l.j 1b44 <vfnprintf+0x5c>
    2580:	d4 01 b0 4c 	l.sw 0x4c(r1),r22
    }
    
    /* right-adjusting zero padding */
    if ((flags & (LADJUST|ZEROPAD)) == ZEROPAD) {
      if (width - realsz > 0) {
	PAD(width - realsz, zeroes);
    2584:	18 60 00 00 	l.movhi r3,0x0
    2588:	a8 90 00 00 	l.ori r4,r16,0x0
    258c:	a8 63 63 ac 	l.ori r3,r3,0x63ac
    2590:	a8 b4 00 00 	l.ori r5,r20,0x0
    2594:	a8 ce 00 00 	l.ori r6,r14,0x0
    2598:	07 ff fd 34 	l.jal 1a68 <print_back_to_string>
    259c:	a8 f2 00 00 	l.ori r7,r18,0x0
    25a0:	bc 0b 00 00 	l.sfeqi r11,0x0
    25a4:	0f ff fd fc 	l.bnf 1d94 <vfnprintf+0x2ac>
    25a8:	84 61 00 4c 	l.lwz r3,0x4c(r1)
	ret += width - realsz;
    25ac:	e3 43 d0 00 	l.add r26,r3,r26
    25b0:	03 ff ff 34 	l.j 2280 <_min_stack+0x280>
    25b4:	d4 01 d0 4c 	l.sw 0x4c(r1),r26
      continue;       /* no output */
    case 'O':
      flags |= LONGINT;
      /*FALLTHROUGH*/
    case 'o':
      _uquad = UARG();
    25b8:	86 1c 00 00 	l.lwz r16,0x0(r28)
    25bc:	e0 80 80 02 	l.sub r4,r0,r16
    25c0:	9f 9c 00 04 	l.addi r28,r28,0x4
    25c4:	e0 84 80 04 	l.or r4,r4,r16
      base = OCT;
    25c8:	a8 cb 00 00 	l.ori r6,r11,0x0
      continue;       /* no output */
    case 'O':
      flags |= LONGINT;
      /*FALLTHROUGH*/
    case 'o':
      _uquad = UARG();
    25cc:	03 ff fd a3 	l.j 1c58 <vfnprintf+0x170>
    25d0:	b8 84 00 5f 	l.srli r4,r4,0x1f
      break;
    case 'U':
      flags |= LONGINT;
      /*FALLTHROUGH*/
    case 'u':
      _uquad = UARG();
    25d4:	86 1c 00 00 	l.lwz r16,0x0(r28)
    25d8:	e0 80 80 02 	l.sub r4,r0,r16
    25dc:	9f 9c 00 04 	l.addi r28,r28,0x4
    25e0:	e0 84 80 04 	l.or r4,r4,r16
      base = DEC;
    25e4:	9c c0 00 01 	l.addi r6,r0,0x1
      break;
    case 'U':
      flags |= LONGINT;
      /*FALLTHROUGH*/
    case 'u':
      _uquad = UARG();
    25e8:	03 ff fd 9c 	l.j 1c58 <vfnprintf+0x170>
    25ec:	b8 84 00 5f 	l.srli r4,r4,0x1f
    case 'X':
      xdigs = (char *)"0123456789ABCDEF";
      goto hex;
    case 'x':
      xdigs = (char *)"0123456789abcdef";
    hex:                    _uquad = UARG();
    25f0:	86 1c 00 00 	l.lwz r16,0x0(r28)
    25f4:	03 ff fe 75 	l.j 1fc8 <vfnprintf+0x4e0>
    25f8:	9f 9c 00 04 	l.addi r28,r28,0x4
	  
	case DEC:
	  if (!(flags & QUADINT)) {
	    /* many numbers are 1 digit */
	    unsigned long v = (unsigned long)_uquad;
	    while (v >= 10) {
    25fc:	0c 00 00 05 	l.bnf 2610 <_min_stack+0x610>
    2600:	ab 0e 00 00 	l.ori r24,r14,0x0
	      /* The following is usually faster than using a modulo */
	      unsigned long next = v / 10;
	      *--cp = to_char(v - (next * 10));
	      v = next;
	    }
	    *--cp = to_char(v);
    2604:	00 00 00 10 	l.j 2644 <_min_stack+0x644>
    2608:	9f 18 ff ff 	l.addi r24,r24,0xffffffff
	  if (!(flags & QUADINT)) {
	    /* many numbers are 1 digit */
	    unsigned long v = (unsigned long)_uquad;
	    while (v >= 10) {
	      /* The following is usually faster than using a modulo */
	      unsigned long next = v / 10;
    260c:	aa 04 00 00 	l.ori r16,r4,0x0
    2610:	9d 00 00 0a 	l.addi r8,r0,0xa
	      *--cp = to_char(v - (next * 10));
    2614:	9f 18 ff ff 	l.addi r24,r24,0xffffffff
	  if (!(flags & QUADINT)) {
	    /* many numbers are 1 digit */
	    unsigned long v = (unsigned long)_uquad;
	    while (v >= 10) {
	      /* The following is usually faster than using a modulo */
	      unsigned long next = v / 10;
    2618:	e0 90 43 0a 	l.divu r4,r16,r8
	      *--cp = to_char(v - (next * 10));
    261c:	e0 a4 20 00 	l.add r5,r4,r4
    2620:	9e 10 00 30 	l.addi r16,r16,0x30
    2624:	b8 c5 00 02 	l.slli r6,r5,0x2
	  
	case DEC:
	  if (!(flags & QUADINT)) {
	    /* many numbers are 1 digit */
	    unsigned long v = (unsigned long)_uquad;
	    while (v >= 10) {
    2628:	bc 44 00 09 	l.sfgtui r4,0x9
	      /* The following is usually faster than using a modulo */
	      unsigned long next = v / 10;
	      *--cp = to_char(v - (next * 10));
    262c:	e0 a5 30 00 	l.add r5,r5,r6
    2630:	e2 10 28 02 	l.sub r16,r16,r5
	  
	case DEC:
	  if (!(flags & QUADINT)) {
	    /* many numbers are 1 digit */
	    unsigned long v = (unsigned long)_uquad;
	    while (v >= 10) {
    2634:	13 ff ff f6 	l.bf 260c <_min_stack+0x60c>
    2638:	d8 18 80 00 	l.sb 0x0(r24),r16
	      /* The following is usually faster than using a modulo */
	      unsigned long next = v / 10;
    263c:	aa 04 00 00 	l.ori r16,r4,0x0
	      *--cp = to_char(v - (next * 10));
	      v = next;
	    }
	    *--cp = to_char(v);
    2640:	9f 18 ff ff 	l.addi r24,r24,0xffffffff
    2644:	9e 10 00 30 	l.addi r16,r16,0x30
    2648:	e0 6e c0 02 	l.sub r3,r14,r24
    264c:	d4 01 18 04 	l.sw 0x4(r1),r3
    2650:	d8 18 80 00 	l.sb 0x0(r24),r16
    2654:	03 ff fd ab 	l.j 1d00 <vfnprintf+0x218>
    2658:	90 a1 00 53 	l.lbs r5,0x53(r1)
#else
	if ((long) _uquad < 0)
#endif
	  {
	    
	    _uquad = -_uquad;
    265c:	e2 00 80 02 	l.sub r16,r0,r16
    2660:	bc 50 00 00 	l.sfgtui r16,0x0
    2664:	0c 00 00 1e 	l.bnf 26dc <_min_stack+0x6dc>
    2668:	9c 60 00 01 	l.addi r3,r0,0x1
    266c:	e1 60 58 02 	l.sub r11,r0,r11
	    sign = '-';
    2670:	9c a0 00 2d 	l.addi r5,r0,0x2d
#else
	if ((long) _uquad < 0)
#endif
	  {
	    
	    _uquad = -_uquad;
    2674:	e1 6b 18 02 	l.sub r11,r11,r3
	    sign = '-';
    2678:	9c 60 00 2d 	l.addi r3,r0,0x2d
	  }
      base = DEC;
    267c:	9c c0 00 01 	l.addi r6,r0,0x1
	if ((long) _uquad < 0)
#endif
	  {
	    
	    _uquad = -_uquad;
	    sign = '-';
    2680:	d8 01 18 53 	l.sb 0x53(r1),r3
    2684:	e0 6b 80 04 	l.or r3,r11,r16
    2688:	e0 80 18 02 	l.sub r4,r0,r3
    268c:	e0 64 18 04 	l.or r3,r4,r3
    2690:	03 ff fd 75 	l.j 1c64 <vfnprintf+0x17c>
    2694:	b8 83 00 5f 	l.srli r4,r3,0x1f
#ifndef _NO_LONGLONG
      if (flags & QUADINT)
	*va_arg(arg, quad_t *) = ret;
      else 
#endif
	if (flags & LONGINT)
    2698:	a4 76 00 10 	l.andi r3,r22,0x10
    269c:	bc 03 00 00 	l.sfeqi r3,0x0
    26a0:	0c 00 00 09 	l.bnf 26c4 <_min_stack+0x6c4>
    26a4:	a4 76 00 40 	l.andi r3,r22,0x40
	  *va_arg(arg, long *) = ret;
	else if (flags & SHORTINT)
    26a8:	bc 03 00 00 	l.sfeqi r3,0x0
    26ac:	10 00 00 06 	l.bf 26c4 <_min_stack+0x6c4>
    26b0:	15 00 00 00 	l.nop 0x0
	  *va_arg(arg, short *) = ret;
    26b4:	84 7c 00 00 	l.lwz r3,0x0(r28)
    26b8:	9f 9c 00 04 	l.addi r28,r28,0x4
    26bc:	03 ff fd 22 	l.j 1b44 <vfnprintf+0x5c>
    26c0:	dc 03 30 00 	l.sh 0x0(r3),r6
	else if (flags & SIZET)
	  *va_arg(arg, size_t *) = ret;
	else
	  *va_arg(arg, int *) = ret;
    26c4:	84 7c 00 00 	l.lwz r3,0x0(r28)
    26c8:	9f 9c 00 04 	l.addi r28,r28,0x4
    26cc:	03 ff fd 1e 	l.j 1b44 <vfnprintf+0x5c>
    26d0:	d4 03 30 00 	l.sw 0x0(r3),r6
	 * strlen() will go further.
	 */
	char *p = (char *)memchr(cp, 0, prec);
	
	if (p != NULL) {
	  size = p - cp;
    26d4:	03 ff fe 30 	l.j 1f94 <vfnprintf+0x4ac>
    26d8:	d4 01 f0 04 	l.sw 0x4(r1),r30
#else
	if ((long) _uquad < 0)
#endif
	  {
	    
	    _uquad = -_uquad;
    26dc:	03 ff ff e4 	l.j 266c <_min_stack+0x66c>
    26e0:	9c 60 00 00 	l.addi r3,r0,0x0
      break;
    case 'U':
      flags |= LONGINT;
      /*FALLTHROUGH*/
    case 'u':
      _uquad = UARG();
    26e4:	86 1c 00 00 	l.lwz r16,0x0(r28)
    26e8:	a6 10 ff ff 	l.andi r16,r16,0xffff
    26ec:	9f 9c 00 04 	l.addi r28,r28,0x4
    26f0:	e0 80 80 02 	l.sub r4,r0,r16
      base = DEC;
    26f4:	9c c0 00 01 	l.addi r6,r0,0x1
      break;
    case 'U':
      flags |= LONGINT;
      /*FALLTHROUGH*/
    case 'u':
      _uquad = UARG();
    26f8:	03 ff fd 58 	l.j 1c58 <vfnprintf+0x170>
    26fc:	b8 84 00 5f 	l.srli r4,r4,0x1f
      continue;       /* no output */
    case 'O':
      flags |= LONGINT;
      /*FALLTHROUGH*/
    case 'o':
      _uquad = UARG();
    2700:	86 1c 00 00 	l.lwz r16,0x0(r28)
    2704:	a6 10 ff ff 	l.andi r16,r16,0xffff
    2708:	9f 9c 00 04 	l.addi r28,r28,0x4
    270c:	e0 80 80 02 	l.sub r4,r0,r16
      base = OCT;
    2710:	a8 c3 00 00 	l.ori r6,r3,0x0
      continue;       /* no output */
    case 'O':
      flags |= LONGINT;
      /*FALLTHROUGH*/
    case 'o':
      _uquad = UARG();
    2714:	03 ff fd 51 	l.j 1c58 <vfnprintf+0x170>
    2718:	b8 84 00 5f 	l.srli r4,r4,0x1f
    case 'X':
      xdigs = (char *)"0123456789ABCDEF";
      goto hex;
    case 'x':
      xdigs = (char *)"0123456789abcdef";
    hex:                    _uquad = UARG();
    271c:	86 1c 00 00 	l.lwz r16,0x0(r28)
    2720:	a6 10 ff ff 	l.andi r16,r16,0xffff
    2724:	03 ff fe 29 	l.j 1fc8 <vfnprintf+0x4e0>
    2728:	9f 9c 00 04 	l.addi r28,r28,0x4
	      v = next;
	    }
	    *--cp = to_char(v);
	  }
	  else {
	    while (_uquad >= 10) {
    272c:	13 ff ff 6f 	l.bf 24e8 <_min_stack+0x4e8>
    2730:	ab 0e 00 00 	l.ori r24,r14,0x0
	      /* The following is usually faster than using a modulo */
	      u_quad_t next = _uquad / 10;
	      *--cp = to_char(_uquad - (next * 10));
	      _uquad = next;
	    }
	    *--cp = to_char(_uquad);
    2734:	9f 18 ff ff 	l.addi r24,r24,0xffffffff
    2738:	9e 10 00 30 	l.addi r16,r16,0x30
    273c:	e0 8e c0 02 	l.sub r4,r14,r24
    2740:	d4 01 20 04 	l.sw 0x4(r1),r4
    2744:	d8 18 80 00 	l.sb 0x0(r24),r16
    2748:	03 ff fd 6e 	l.j 1d00 <vfnprintf+0x218>
    274c:	90 a1 00 53 	l.lbs r5,0x53(r1)
      break;
    case 'z':
      flags |= SIZET;
      goto rflag;
    default:        /* "%?" prints ?, unless ? is NUL */
      if (ch == '\0')
    2750:	03 ff fd 92 	l.j 1d98 <vfnprintf+0x2b0>
    2754:	a9 66 00 00 	l.ori r11,r6,0x0
    case 'h':
      flags |= SHORTINT;
      goto rflag;
    case 'l':
      if (*fmt == 'l') {
	fmt++;
    2758:	9c 42 00 01 	l.addi r2,r2,0x1
	flags |= QUADINT;
    275c:	aa d6 00 20 	l.ori r22,r22,0x20
    2760:	03 ff fd 15 	l.j 1bb4 <vfnprintf+0xcc>
    2764:	93 42 00 00 	l.lbs r26,0x0(r2)
	  if (size > prec)
	    size = prec;
	} else
	  size = prec;
      } else
	size = strlen(cp);
    2768:	04 00 00 90 	l.jal 29a8 <strlen>
    276c:	a8 78 00 00 	l.ori r3,r24,0x0
    2770:	03 ff fe 09 	l.j 1f94 <vfnprintf+0x4ac>
    2774:	d4 01 58 04 	l.sw 0x4(r1),r11
	  do {
	    *--cp = to_char(_uquad & 7);
	    _uquad >>= 3;
	  } while (_uquad);
	  /* handle octal leading 0 */
	  if (flags & ALT && *cp != '0')
    2778:	e0 8e c0 02 	l.sub r4,r14,r24
    277c:	90 a1 00 53 	l.lbs r5,0x53(r1)
    2780:	03 ff fd 60 	l.j 1d00 <vfnprintf+0x218>
    2784:	d4 01 20 04 	l.sw 0x4(r1),r4
      flags |= HEXPREFIX;
      ch = 'x';
      goto nosign;
    case 's':
      if ((cp = va_arg(arg, char *)) == NULL)
	cp = (char *)"(null)";
    2788:	1b 00 00 00 	l.movhi r24,0x0
    278c:	03 ff fd f4 	l.j 1f5c <vfnprintf+0x474>
    2790:	ab 18 62 a0 	l.ori r24,r24,0x62a0

00002794 <sprintf>:
  /* NOTREACHED */
}

int
sprintf(char* str, const char *fmt, ...)
{
    2794:	d7 e1 4f fc 	l.sw 0xfffffffc(r1),r9
    2798:	9c 21 ff fc 	l.addi r1,r1,0xfffffffc
    279c:	a8 a4 00 00 	l.ori r5,r4,0x0
	va_list args;
	
	va_start(args, fmt);

	return vfnprintf(str, 1024, fmt, args);
    27a0:	9c c1 00 04 	l.addi r6,r1,0x4
    27a4:	07 ff fc d1 	l.jal 1ae8 <vfnprintf>
    27a8:	9c 80 04 00 	l.addi r4,r0,0x400
	
}
    27ac:	9c 21 00 04 	l.addi r1,r1,0x4
    27b0:	85 21 ff fc 	l.lwz r9,0xfffffffc(r1)
    27b4:	44 00 48 00 	l.jr r9
    27b8:	15 00 00 00 	l.nop 0x0

000027bc <printf_to_sim>:
// Actual printf function we call, with static buffer of 512 bytes
char PRINTFBUFFER[PRINTFBUFFER_SIZE]; // Declare a global printf buffer

int 
printf_to_sim(const char *fmt, ...)
{
    27bc:	d7 e1 77 f8 	l.sw 0xfffffff8(r1),r14
    27c0:	d7 e1 4f fc 	l.sw 0xfffffffc(r1),r9
    27c4:	d7 e1 17 f4 	l.sw 0xfffffff4(r1),r2
    27c8:	a8 a3 00 00 	l.ori r5,r3,0x0
    27cc:	9c 21 ff f4 	l.addi r1,r1,0xfffffff4

  va_list args;
  va_start(args, fmt);
  
  int str_l = vfnprintf(PRINTFBUFFER, PRINTFBUFFER_SIZE, fmt, args);
    27d0:	18 60 00 00 	l.movhi r3,0x0
    27d4:	9c 80 02 00 	l.addi r4,r0,0x200
    27d8:	a8 63 65 04 	l.ori r3,r3,0x6504
    27dc:	07 ff fc c3 	l.jal 1ae8 <vfnprintf>
    27e0:	9c c1 00 0c 	l.addi r6,r1,0xc
  
  if (!str_l) return -1; // no length string - just return
    27e4:	bc 0b 00 00 	l.sfeqi r11,0x0
    27e8:	10 00 00 14 	l.bf 2838 <printf_to_sim+0x7c>
    27ec:	a9 cb 00 00 	l.ori r14,r11,0x0

  char c;
  int i=0;
  while(i<str_l)  sim_putc(PRINTFBUFFER[i++]);
    27f0:	bd ab 00 00 	l.sflesi r11,0x0
    27f4:	10 00 00 0b 	l.bf 2820 <printf_to_sim+0x64>
    27f8:	9c 40 00 00 	l.addi r2,r0,0x0
#include "cpu-utils.h"
// Actual printf function we call, with static buffer of 512 bytes
char PRINTFBUFFER[PRINTFBUFFER_SIZE]; // Declare a global printf buffer

int 
printf_to_sim(const char *fmt, ...)
    27fc:	18 80 00 00 	l.movhi r4,0x0
    2800:	a8 84 65 04 	l.ori r4,r4,0x6504
    2804:	e0 62 20 00 	l.add r3,r2,r4
  
  if (!str_l) return -1; // no length string - just return

  char c;
  int i=0;
  while(i<str_l)  sim_putc(PRINTFBUFFER[i++]);
    2808:	9c 42 00 01 	l.addi r2,r2,0x1
    280c:	07 ff fb 2d 	l.jal 14c0 <sim_putc>
    2810:	8c 63 00 00 	l.lbz r3,0x0(r3)
    2814:	e5 4e 10 00 	l.sfgts r14,r2
    2818:	13 ff ff fa 	l.bf 2800 <printf_to_sim+0x44>
    281c:	18 80 00 00 	l.movhi r4,0x0
  
  va_end(args);

  return str_l;
}
    2820:	9c 21 00 0c 	l.addi r1,r1,0xc
    2824:	a9 6e 00 00 	l.ori r11,r14,0x0
    2828:	85 21 ff fc 	l.lwz r9,0xfffffffc(r1)
    282c:	84 41 ff f4 	l.lwz r2,0xfffffff4(r1)
    2830:	44 00 48 00 	l.jr r9
    2834:	85 c1 ff f8 	l.lwz r14,0xfffffff8(r1)
    2838:	9c 21 00 0c 	l.addi r1,r1,0xc
  va_list args;
  va_start(args, fmt);
  
  int str_l = vfnprintf(PRINTFBUFFER, PRINTFBUFFER_SIZE, fmt, args);
  
  if (!str_l) return -1; // no length string - just return
    283c:	9d c0 ff ff 	l.addi r14,r0,0xffffffff
  while(i<str_l)  sim_putc(PRINTFBUFFER[i++]);
  
  va_end(args);

  return str_l;
}
    2840:	85 21 ff fc 	l.lwz r9,0xfffffffc(r1)
    2844:	a9 6e 00 00 	l.ori r11,r14,0x0
    2848:	84 41 ff f4 	l.lwz r2,0xfffffff4(r1)
    284c:	44 00 48 00 	l.jr r9
    2850:	85 c1 ff f8 	l.lwz r14,0xfffffff8(r1)

00002854 <puts_to_sim>:

int 
puts_to_sim(const char *str)
{
    2854:	d7 e1 4f fc 	l.sw 0xfffffffc(r1),r9
    2858:	9c 21 ff f8 	l.addi r1,r1,0xfffffff8
  return printf_to_sim("%s\n", str);
    285c:	d4 01 18 00 	l.sw 0x0(r1),r3
    2860:	18 60 00 00 	l.movhi r3,0x0
    2864:	07 ff ff d6 	l.jal 27bc <printf_to_sim>
    2868:	a8 63 62 c9 	l.ori r3,r3,0x62c9
}
    286c:	9c 21 00 08 	l.addi r1,r1,0x8
    2870:	85 21 ff fc 	l.lwz r9,0xfffffffc(r1)
    2874:	44 00 48 00 	l.jr r9
    2878:	15 00 00 00 	l.nop 0x0

0000287c <printf_to_uart>:
// required to compile everything.
#include "uart.h"

int
printf_to_uart(const char *fmt, ...)
{
    287c:	d7 e1 77 f8 	l.sw 0xfffffff8(r1),r14
    2880:	d7 e1 4f fc 	l.sw 0xfffffffc(r1),r9
    2884:	d7 e1 17 f4 	l.sw 0xfffffff4(r1),r2
    2888:	a8 a3 00 00 	l.ori r5,r3,0x0
    288c:	9c 21 ff f4 	l.addi r1,r1,0xfffffff4

  va_list args;
  va_start(args, fmt);
  
  int str_l = vfnprintf(PRINTFBUFFER, PRINTFBUFFER_SIZE, fmt, args);
    2890:	18 60 00 00 	l.movhi r3,0x0
    2894:	9c 80 02 00 	l.addi r4,r0,0x200
    2898:	a8 63 65 04 	l.ori r3,r3,0x6504
    289c:	07 ff fc 93 	l.jal 1ae8 <vfnprintf>
    28a0:	9c c1 00 0c 	l.addi r6,r1,0xc
  
  if (!str_l) return -1; // no length string - just return
    28a4:	bc 0b 00 00 	l.sfeqi r11,0x0
    28a8:	10 00 00 15 	l.bf 28fc <printf_to_uart+0x80>
    28ac:	a9 cb 00 00 	l.ori r14,r11,0x0

  // Assumes uart is initialised
  int i=0;while(i<str_l) uart_putc(DEFAULT_UART,PRINTFBUFFER[i++]);
    28b0:	bd ab 00 00 	l.sflesi r11,0x0
    28b4:	10 00 00 0c 	l.bf 28e4 <printf_to_uart+0x68>
    28b8:	9c 40 00 00 	l.addi r2,r0,0x0
// Calls to the UART driver are always in the library - hence it is always
// required to compile everything.
#include "uart.h"

int
printf_to_uart(const char *fmt, ...)
    28bc:	18 60 00 00 	l.movhi r3,0x0
    28c0:	a8 63 65 04 	l.ori r3,r3,0x6504
    28c4:	e0 82 18 00 	l.add r4,r2,r3
  int str_l = vfnprintf(PRINTFBUFFER, PRINTFBUFFER_SIZE, fmt, args);
  
  if (!str_l) return -1; // no length string - just return

  // Assumes uart is initialised
  int i=0;while(i<str_l) uart_putc(DEFAULT_UART,PRINTFBUFFER[i++]);
    28c8:	9c 60 00 00 	l.addi r3,r0,0x0
    28cc:	90 84 00 00 	l.lbs r4,0x0(r4)
    28d0:	07 ff fb b5 	l.jal 17a4 <uart_putc>
    28d4:	9c 42 00 01 	l.addi r2,r2,0x1
    28d8:	e5 4e 10 00 	l.sfgts r14,r2
    28dc:	13 ff ff f9 	l.bf 28c0 <printf_to_uart+0x44>
    28e0:	18 60 00 00 	l.movhi r3,0x0

  va_end(args);

  return str_l;
  
}
    28e4:	9c 21 00 0c 	l.addi r1,r1,0xc
    28e8:	a9 6e 00 00 	l.ori r11,r14,0x0
    28ec:	85 21 ff fc 	l.lwz r9,0xfffffffc(r1)
    28f0:	84 41 ff f4 	l.lwz r2,0xfffffff4(r1)
    28f4:	44 00 48 00 	l.jr r9
    28f8:	85 c1 ff f8 	l.lwz r14,0xfffffff8(r1)
    28fc:	9c 21 00 0c 	l.addi r1,r1,0xc
  va_list args;
  va_start(args, fmt);
  
  int str_l = vfnprintf(PRINTFBUFFER, PRINTFBUFFER_SIZE, fmt, args);
  
  if (!str_l) return -1; // no length string - just return
    2900:	9d c0 ff ff 	l.addi r14,r0,0xffffffff

  va_end(args);

  return str_l;
  
}
    2904:	85 21 ff fc 	l.lwz r9,0xfffffffc(r1)
    2908:	a9 6e 00 00 	l.ori r11,r14,0x0
    290c:	84 41 ff f4 	l.lwz r2,0xfffffff4(r1)
    2910:	44 00 48 00 	l.jr r9
    2914:	85 c1 ff f8 	l.lwz r14,0xfffffff8(r1)

00002918 <putchar_to_uart>:

int 
putchar_to_uart(int c)
{
    2918:	d7 e1 17 f8 	l.sw 0xfffffff8(r1),r2
    291c:	a8 43 00 00 	l.ori r2,r3,0x0
  printf_to_uart("%c",c);
    2920:	18 60 00 00 	l.movhi r3,0x0
  
}

int 
putchar_to_uart(int c)
{
    2924:	d7 e1 4f fc 	l.sw 0xfffffffc(r1),r9
  printf_to_uart("%c",c);
    2928:	a8 63 62 cd 	l.ori r3,r3,0x62cd
  
}

int 
putchar_to_uart(int c)
{
    292c:	9c 21 ff f4 	l.addi r1,r1,0xfffffff4
  printf_to_uart("%c",c);
    2930:	07 ff ff d3 	l.jal 287c <printf_to_uart>
    2934:	d4 01 10 00 	l.sw 0x0(r1),r2
 
  return c;
}
    2938:	9c 21 00 0c 	l.addi r1,r1,0xc
    293c:	a9 62 00 00 	l.ori r11,r2,0x0
    2940:	85 21 ff fc 	l.lwz r9,0xfffffffc(r1)
    2944:	44 00 48 00 	l.jr r9
    2948:	84 41 ff f8 	l.lwz r2,0xfffffff8(r1)

0000294c <puts_to_uart>:

int 
puts_to_uart(const char *str)
{
    294c:	d7 e1 4f fc 	l.sw 0xfffffffc(r1),r9
    2950:	9c 21 ff f8 	l.addi r1,r1,0xfffffff8
  return printf_to_uart("%s\n", str);
    2954:	d4 01 18 00 	l.sw 0x0(r1),r3
    2958:	18 60 00 00 	l.movhi r3,0x0
    295c:	07 ff ff c8 	l.jal 287c <printf_to_uart>
    2960:	a8 63 62 c9 	l.ori r3,r3,0x62c9
}
    2964:	9c 21 00 08 	l.addi r1,r1,0x8
    2968:	85 21 ff fc 	l.lwz r9,0xfffffffc(r1)
    296c:	44 00 48 00 	l.jr r9
    2970:	15 00 00 00 	l.nop 0x0

00002974 <memcpy>:
#ifdef __BCC__
  while (n--) {
    *r1++ = *r2++;
  }
#else
  while (n) {
    2974:	bc 05 00 00 	l.sfeqi r5,0x0
    2978:	10 00 00 0a 	l.bf 29a0 <memcpy+0x2c>
    297c:	15 00 00 00 	l.nop 0x0
    2980:	9c c0 00 00 	l.addi r6,r0,0x0

/* Simple C functions */

/* memcpy */

void* memcpy( void* s1, void* s2, size_t n)
    2984:	e1 04 30 00 	l.add r8,r4,r6
    2988:	e0 e3 30 00 	l.add r7,r3,r6
  while (n--) {
    *r1++ = *r2++;
  }
#else
  while (n) {
    *r1++ = *r2++;
    298c:	8d 08 00 00 	l.lbz r8,0x0(r8)
    2990:	9c c6 00 01 	l.addi r6,r6,0x1
#ifdef __BCC__
  while (n--) {
    *r1++ = *r2++;
  }
#else
  while (n) {
    2994:	e4 26 28 00 	l.sfne r6,r5
    2998:	13 ff ff fb 	l.bf 2984 <memcpy+0x10>
    299c:	d8 07 40 00 	l.sb 0x0(r7),r8
    *r1++ = *r2++;
    --n;
  }
#endif
  return s1;
}
    29a0:	44 00 48 00 	l.jr r9
    29a4:	a9 63 00 00 	l.ori r11,r3,0x0

000029a8 <strlen>:

/* strlen */
size_t strlen(const char*s)
{
  const char* p;
  for (p=s; *p; p++);
    29a8:	91 63 00 00 	l.lbs r11,0x0(r3)
    29ac:	bc 0b 00 00 	l.sfeqi r11,0x0
    29b0:	10 00 00 0a 	l.bf 29d8 <strlen+0x30>
    29b4:	15 00 00 00 	l.nop 0x0
    29b8:	a9 63 00 00 	l.ori r11,r3,0x0
    29bc:	9d 6b 00 01 	l.addi r11,r11,0x1
    29c0:	90 8b 00 00 	l.lbs r4,0x0(r11)
    29c4:	bc 24 00 00 	l.sfnei r4,0x0
    29c8:	13 ff ff fe 	l.bf 29c0 <strlen+0x18>
    29cc:	9d 6b 00 01 	l.addi r11,r11,0x1
    29d0:	9d 6b ff ff 	l.addi r11,r11,0xffffffff
    29d4:	e1 6b 18 02 	l.sub r11,r11,r3
  return p - s;
}
    29d8:	44 00 48 00 	l.jr r9
    29dc:	15 00 00 00 	l.nop 0x0

000029e0 <memchr>:
        const char *np = (const char *) n;
#else
# define np n
#endif

        while (np) {
    29e0:	bc 05 00 00 	l.sfeqi r5,0x0
    29e4:	10 00 00 12 	l.bf 2a2c <memchr+0x4c>
    29e8:	a9 65 00 00 	l.ori r11,r5,0x0
                if (*r == ((unsigned char)c)) {
    29ec:	8c c3 00 00 	l.lbz r6,0x0(r3)
    29f0:	a4 84 00 ff 	l.andi r4,r4,0xff
    29f4:	e4 06 20 00 	l.sfeq r6,r4
    29f8:	0c 00 00 08 	l.bnf 2a18 <memchr+0x38>
    29fc:	a9 63 00 00 	l.ori r11,r3,0x0
    2a00:	00 00 00 0b 	l.j 2a2c <memchr+0x4c>
    2a04:	15 00 00 00 	l.nop 0x0
    2a08:	8c c3 00 00 	l.lbz r6,0x0(r3)
    2a0c:	e4 06 20 00 	l.sfeq r6,r4
    2a10:	10 00 00 09 	l.bf 2a34 <memchr+0x54>
    2a14:	15 00 00 00 	l.nop 0x0
                        return (void *) r;     /* silence the warning */
                }
                ++r;
                --np;
    2a18:	9c a5 ff ff 	l.addi r5,r5,0xffffffff
        const char *np = (const char *) n;
#else
# define np n
#endif

        while (np) {
    2a1c:	bc 25 00 00 	l.sfnei r5,0x0
    2a20:	13 ff ff fa 	l.bf 2a08 <memchr+0x28>
    2a24:	9c 63 00 01 	l.addi r3,r3,0x1
                }
                ++r;
                --np;
        }

        return NULL;
    2a28:	a9 65 00 00 	l.ori r11,r5,0x0
}
    2a2c:	44 00 48 00 	l.jr r9
    2a30:	15 00 00 00 	l.nop 0x0
    2a34:	44 00 48 00 	l.jr r9
    2a38:	a9 63 00 00 	l.ori r11,r3,0x0

00002a3c <rand>:
rand ()
{
  static unsigned long int lfsr = RAND_LFSR_SEED;
  static int period = 0;
  /* taps: 32 31 29 1; characteristic polynomial: x^32 + x^31 + x^29 + x + 1 */
  lfsr = (lfsr >> 1) ^ (unsigned long int)((0 - (lfsr & 1u)) & 0xd0000001u); 
    2a3c:	18 60 00 00 	l.movhi r3,0x0

   @return The next pseudo-random number                                     */
/* --------------------------------------------------------------------------*/
unsigned long int
rand ()
{
    2a40:	d7 e1 17 fc 	l.sw 0xfffffffc(r1),r2
  static unsigned long int lfsr = RAND_LFSR_SEED;
  static int period = 0;
  /* taps: 32 31 29 1; characteristic polynomial: x^32 + x^31 + x^29 + x + 1 */
  lfsr = (lfsr >> 1) ^ (unsigned long int)((0 - (lfsr & 1u)) & 0xd0000001u); 
    2a44:	a8 63 63 cc 	l.ori r3,r3,0x63cc
  ++period;
    2a48:	18 80 00 00 	l.movhi r4,0x0
rand ()
{
  static unsigned long int lfsr = RAND_LFSR_SEED;
  static int period = 0;
  /* taps: 32 31 29 1; characteristic polynomial: x^32 + x^31 + x^29 + x + 1 */
  lfsr = (lfsr >> 1) ^ (unsigned long int)((0 - (lfsr & 1u)) & 0xd0000001u); 
    2a4c:	84 a3 00 00 	l.lwz r5,0x0(r3)
    2a50:	18 40 d0 00 	l.movhi r2,0xd000
    2a54:	a5 65 00 01 	l.andi r11,r5,0x1
  ++period;
    2a58:	a8 84 63 d4 	l.ori r4,r4,0x63d4
rand ()
{
  static unsigned long int lfsr = RAND_LFSR_SEED;
  static int period = 0;
  /* taps: 32 31 29 1; characteristic polynomial: x^32 + x^31 + x^29 + x + 1 */
  lfsr = (lfsr >> 1) ^ (unsigned long int)((0 - (lfsr & 1u)) & 0xd0000001u); 
    2a5c:	a8 42 00 01 	l.ori r2,r2,0x1
    2a60:	e1 60 58 02 	l.sub r11,r0,r11
    2a64:	b8 a5 00 41 	l.srli r5,r5,0x1
  ++period;
    2a68:	84 c4 00 00 	l.lwz r6,0x0(r4)
rand ()
{
  static unsigned long int lfsr = RAND_LFSR_SEED;
  static int period = 0;
  /* taps: 32 31 29 1; characteristic polynomial: x^32 + x^31 + x^29 + x + 1 */
  lfsr = (lfsr >> 1) ^ (unsigned long int)((0 - (lfsr & 1u)) & 0xd0000001u); 
    2a6c:	e1 6b 10 03 	l.and r11,r11,r2
  ++period;
    2a70:	9c c6 00 01 	l.addi r6,r6,0x1
rand ()
{
  static unsigned long int lfsr = RAND_LFSR_SEED;
  static int period = 0;
  /* taps: 32 31 29 1; characteristic polynomial: x^32 + x^31 + x^29 + x + 1 */
  lfsr = (lfsr >> 1) ^ (unsigned long int)((0 - (lfsr & 1u)) & 0xd0000001u); 
    2a74:	e1 6b 28 05 	l.xor r11,r11,r5

   @return The next pseudo-random number                                     */
/* --------------------------------------------------------------------------*/
unsigned long int
rand ()
{
    2a78:	9c 21 ff fc 	l.addi r1,r1,0xfffffffc
  static unsigned long int lfsr = RAND_LFSR_SEED;
  static int period = 0;
  /* taps: 32 31 29 1; characteristic polynomial: x^32 + x^31 + x^29 + x + 1 */
  lfsr = (lfsr >> 1) ^ (unsigned long int)((0 - (lfsr & 1u)) & 0xd0000001u); 
  ++period;
    2a7c:	d4 04 30 00 	l.sw 0x0(r4),r6
rand ()
{
  static unsigned long int lfsr = RAND_LFSR_SEED;
  static int period = 0;
  /* taps: 32 31 29 1; characteristic polynomial: x^32 + x^31 + x^29 + x + 1 */
  lfsr = (lfsr >> 1) ^ (unsigned long int)((0 - (lfsr & 1u)) & 0xd0000001u); 
    2a80:	d4 03 58 00 	l.sw 0x0(r3),r11
  ++period;
  return lfsr;
}
    2a84:	9c 21 00 04 	l.addi r1,r1,0x4
    2a88:	44 00 48 00 	l.jr r9
    2a8c:	84 41 ff fc 	l.lwz r2,0xfffffffc(r1)

00002a90 <__udivdi3>:
    2a90:	d7 e1 17 d4 	l.sw 0xffffffd4(r1),r2
    2a94:	d7 e1 77 d8 	l.sw 0xffffffd8(r1),r14
    2a98:	d7 e1 87 dc 	l.sw 0xffffffdc(r1),r16
    2a9c:	d7 e1 97 e0 	l.sw 0xffffffe0(r1),r18
    2aa0:	d7 e1 a7 e4 	l.sw 0xffffffe4(r1),r20
    2aa4:	d7 e1 4f fc 	l.sw 0xfffffffc(r1),r9
    2aa8:	d7 e1 b7 e8 	l.sw 0xffffffe8(r1),r22
    2aac:	d7 e1 c7 ec 	l.sw 0xffffffec(r1),r24
    2ab0:	d7 e1 d7 f0 	l.sw 0xfffffff0(r1),r26
    2ab4:	d7 e1 e7 f4 	l.sw 0xfffffff4(r1),r28
    2ab8:	d7 e1 f7 f8 	l.sw 0xfffffff8(r1),r30
    2abc:	a9 c3 00 00 	l.ori r14,r3,0x0
    2ac0:	9c 21 ff d4 	l.addi r1,r1,0xffffffd4
    2ac4:	aa 04 00 00 	l.ori r16,r4,0x0
    2ac8:	a8 46 00 00 	l.ori r2,r6,0x0
    2acc:	aa 84 00 00 	l.ori r20,r4,0x0
    2ad0:	bc 25 00 00 	l.sfnei r5,0x0
    2ad4:	10 00 00 51 	l.bf 2c18 <__udivdi3+0x188>
    2ad8:	aa 43 00 00 	l.ori r18,r3,0x0
    2adc:	e4 a2 18 00 	l.sfleu r2,r3
    2ae0:	10 00 00 85 	l.bf 2cf4 <__udivdi3+0x264>
    2ae4:	bc 22 00 00 	l.sfnei r2,0x0
    2ae8:	a8 60 ff ff 	l.ori r3,r0,0xffff
    2aec:	e4 42 18 00 	l.sfgtu r2,r3
    2af0:	0c 00 00 d3 	l.bnf 2e3c <__udivdi3+0x3ac>
    2af4:	bc 42 00 ff 	l.sfgtui r2,0xff
    2af8:	18 80 00 ff 	l.movhi r4,0xff
    2afc:	a8 84 ff ff 	l.ori r4,r4,0xffff
    2b00:	e4 42 20 00 	l.sfgtu r2,r4
    2b04:	10 00 01 39 	l.bf 2fe8 <__udivdi3+0x558>
    2b08:	9c a0 00 18 	l.addi r5,r0,0x18
    2b0c:	9c a0 00 10 	l.addi r5,r0,0x10
    2b10:	a8 65 00 00 	l.ori r3,r5,0x0
    2b14:	18 80 00 00 	l.movhi r4,0x0
    2b18:	e0 a6 28 48 	l.srl r5,r6,r5
    2b1c:	a8 84 60 54 	l.ori r4,r4,0x6054
    2b20:	e0 a5 20 00 	l.add r5,r5,r4
    2b24:	8c 85 00 00 	l.lbz r4,0x0(r5)
    2b28:	e0 84 18 00 	l.add r4,r4,r3
    2b2c:	9c 60 00 20 	l.addi r3,r0,0x20
    2b30:	e0 63 20 02 	l.sub r3,r3,r4
    2b34:	bc 03 00 00 	l.sfeqi r3,0x0
    2b38:	10 00 00 06 	l.bf 2b50 <__udivdi3+0xc0>
    2b3c:	e1 ce 18 08 	l.sll r14,r14,r3
    2b40:	e0 90 20 48 	l.srl r4,r16,r4
    2b44:	e0 46 18 08 	l.sll r2,r6,r3
    2b48:	e2 90 18 08 	l.sll r20,r16,r3
    2b4c:	e2 4e 20 04 	l.or r18,r14,r4
    2b50:	b9 c2 00 50 	l.srli r14,r2,0x10
    2b54:	a8 72 00 00 	l.ori r3,r18,0x0
    2b58:	a6 c2 ff ff 	l.andi r22,r2,0xffff
    2b5c:	04 00 0c 67 	l.jal 5cf8 <__umodsi3>
    2b60:	a8 8e 00 00 	l.ori r4,r14,0x0
    2b64:	a8 72 00 00 	l.ori r3,r18,0x0
    2b68:	a8 8e 00 00 	l.ori r4,r14,0x0
    2b6c:	04 00 0c 24 	l.jal 5bfc <__udivsi3>
    2b70:	ab 0b 00 00 	l.ori r24,r11,0x0
    2b74:	e0 8b b3 06 	l.mul r4,r11,r22
    2b78:	b8 78 00 10 	l.slli r3,r24,0x10
    2b7c:	b8 b4 00 50 	l.srli r5,r20,0x10
    2b80:	e0 63 28 04 	l.or r3,r3,r5
    2b84:	e4 a4 18 00 	l.sfleu r4,r3
    2b88:	10 00 00 09 	l.bf 2bac <__udivdi3+0x11c>
    2b8c:	aa 0b 00 00 	l.ori r16,r11,0x0
    2b90:	e0 63 10 00 	l.add r3,r3,r2
    2b94:	e4 42 18 00 	l.sfgtu r2,r3
    2b98:	10 00 00 05 	l.bf 2bac <__udivdi3+0x11c>
    2b9c:	9e 0b ff ff 	l.addi r16,r11,0xffffffff
    2ba0:	e4 a4 18 00 	l.sfleu r4,r3
    2ba4:	0c 00 01 5c 	l.bnf 3114 <__udivdi3+0x684>
    2ba8:	15 00 00 00 	l.nop 0x0
    2bac:	e2 43 20 02 	l.sub r18,r3,r4
    2bb0:	a8 8e 00 00 	l.ori r4,r14,0x0
    2bb4:	a8 72 00 00 	l.ori r3,r18,0x0
    2bb8:	04 00 0c 50 	l.jal 5cf8 <__umodsi3>
    2bbc:	a6 94 ff ff 	l.andi r20,r20,0xffff
    2bc0:	a8 72 00 00 	l.ori r3,r18,0x0
    2bc4:	a8 8e 00 00 	l.ori r4,r14,0x0
    2bc8:	04 00 0c 0d 	l.jal 5bfc <__udivsi3>
    2bcc:	ab 0b 00 00 	l.ori r24,r11,0x0
    2bd0:	a8 6b 00 00 	l.ori r3,r11,0x0
    2bd4:	b9 78 00 10 	l.slli r11,r24,0x10
    2bd8:	e2 c3 b3 06 	l.mul r22,r3,r22
    2bdc:	e2 8b a0 04 	l.or r20,r11,r20
    2be0:	e4 b6 a0 00 	l.sfleu r22,r20
    2be4:	10 00 00 09 	l.bf 2c08 <__udivdi3+0x178>
    2be8:	e2 94 10 00 	l.add r20,r20,r2
    2bec:	e4 42 a0 00 	l.sfgtu r2,r20
    2bf0:	10 00 00 06 	l.bf 2c08 <__udivdi3+0x178>
    2bf4:	9c 63 ff ff 	l.addi r3,r3,0xffffffff
    2bf8:	e4 b6 a0 00 	l.sfleu r22,r20
    2bfc:	10 00 00 03 	l.bf 2c08 <__udivdi3+0x178>
    2c00:	15 00 00 00 	l.nop 0x0
    2c04:	9c 63 ff ff 	l.addi r3,r3,0xffffffff
    2c08:	b9 70 00 10 	l.slli r11,r16,0x10
    2c0c:	9c 80 00 00 	l.addi r4,r0,0x0
    2c10:	00 00 00 2a 	l.j 2cb8 <__udivdi3+0x228>
    2c14:	e1 63 58 04 	l.or r11,r3,r11
    2c18:	e4 45 18 00 	l.sfgtu r5,r3
    2c1c:	10 00 00 81 	l.bf 2e20 <__udivdi3+0x390>
    2c20:	a8 40 ff ff 	l.ori r2,r0,0xffff
    2c24:	e4 45 10 00 	l.sfgtu r5,r2
    2c28:	0c 00 00 80 	l.bnf 2e28 <__udivdi3+0x398>
    2c2c:	bc 45 00 ff 	l.sfgtui r5,0xff
    2c30:	18 60 00 ff 	l.movhi r3,0xff
    2c34:	a8 63 ff ff 	l.ori r3,r3,0xffff
    2c38:	e4 45 18 00 	l.sfgtu r5,r3
    2c3c:	10 00 01 2a 	l.bf 30e4 <__udivdi3+0x654>
    2c40:	9c 40 00 18 	l.addi r2,r0,0x18
    2c44:	9c 40 00 10 	l.addi r2,r0,0x10
    2c48:	a8 62 00 00 	l.ori r3,r2,0x0
    2c4c:	18 80 00 00 	l.movhi r4,0x0
    2c50:	e0 45 10 48 	l.srl r2,r5,r2
    2c54:	a8 84 60 54 	l.ori r4,r4,0x6054
    2c58:	e0 42 20 00 	l.add r2,r2,r4
    2c5c:	8c 82 00 00 	l.lbz r4,0x0(r2)
    2c60:	9c 40 00 20 	l.addi r2,r0,0x20
    2c64:	e0 84 18 00 	l.add r4,r4,r3
    2c68:	e0 42 20 02 	l.sub r2,r2,r4
    2c6c:	bc 22 00 00 	l.sfnei r2,0x0
    2c70:	10 00 00 81 	l.bf 2e74 <__udivdi3+0x3e4>
    2c74:	e0 66 20 48 	l.srl r3,r6,r4
    2c78:	e4 a6 80 00 	l.sfleu r6,r16
    2c7c:	10 00 00 03 	l.bf 2c88 <__udivdi3+0x1f8>
    2c80:	9c 60 00 01 	l.addi r3,r0,0x1
    2c84:	a8 62 00 00 	l.ori r3,r2,0x0
    2c88:	a4 63 00 ff 	l.andi r3,r3,0xff
    2c8c:	bc 23 00 00 	l.sfnei r3,0x0
    2c90:	10 00 00 77 	l.bf 2e6c <__udivdi3+0x3dc>
    2c94:	9d 60 00 01 	l.addi r11,r0,0x1
    2c98:	e4 85 70 00 	l.sfltu r5,r14
    2c9c:	0c 00 01 16 	l.bnf 30f4 <__udivdi3+0x664>
    2ca0:	9d 60 00 01 	l.addi r11,r0,0x1
    2ca4:	a5 6b 00 ff 	l.andi r11,r11,0xff
    2ca8:	bc 2b 00 00 	l.sfnei r11,0x0
    2cac:	10 00 00 6f 	l.bf 2e68 <__udivdi3+0x3d8>
    2cb0:	15 00 00 00 	l.nop 0x0
    2cb4:	a8 8b 00 00 	l.ori r4,r11,0x0
    2cb8:	9c 21 00 2c 	l.addi r1,r1,0x2c
    2cbc:	a9 8b 00 00 	l.ori r12,r11,0x0
    2cc0:	85 21 ff fc 	l.lwz r9,0xfffffffc(r1)
    2cc4:	a9 64 00 00 	l.ori r11,r4,0x0
    2cc8:	84 41 ff d4 	l.lwz r2,0xffffffd4(r1)
    2ccc:	85 c1 ff d8 	l.lwz r14,0xffffffd8(r1)
    2cd0:	86 01 ff dc 	l.lwz r16,0xffffffdc(r1)
    2cd4:	86 41 ff e0 	l.lwz r18,0xffffffe0(r1)
    2cd8:	86 81 ff e4 	l.lwz r20,0xffffffe4(r1)
    2cdc:	86 c1 ff e8 	l.lwz r22,0xffffffe8(r1)
    2ce0:	87 01 ff ec 	l.lwz r24,0xffffffec(r1)
    2ce4:	87 41 ff f0 	l.lwz r26,0xfffffff0(r1)
    2ce8:	87 81 ff f4 	l.lwz r28,0xfffffff4(r1)
    2cec:	44 00 48 00 	l.jr r9
    2cf0:	87 c1 ff f8 	l.lwz r30,0xfffffff8(r1)
    2cf4:	0c 00 00 57 	l.bnf 2e50 <__udivdi3+0x3c0>
    2cf8:	a8 82 00 00 	l.ori r4,r2,0x0
    2cfc:	a8 a0 ff ff 	l.ori r5,r0,0xffff
    2d00:	e4 42 28 00 	l.sfgtu r2,r5
    2d04:	0c 00 01 0a 	l.bnf 312c <__udivdi3+0x69c>
    2d08:	18 60 00 ff 	l.movhi r3,0xff
    2d0c:	a8 63 ff ff 	l.ori r3,r3,0xffff
    2d10:	e4 42 18 00 	l.sfgtu r2,r3
    2d14:	10 00 00 f6 	l.bf 30ec <__udivdi3+0x65c>
    2d18:	9c 60 00 18 	l.addi r3,r0,0x18
    2d1c:	9c 60 00 10 	l.addi r3,r0,0x10
    2d20:	a8 83 00 00 	l.ori r4,r3,0x0
    2d24:	18 a0 00 00 	l.movhi r5,0x0
    2d28:	e0 62 18 48 	l.srl r3,r2,r3
    2d2c:	a8 a5 60 54 	l.ori r5,r5,0x6054
    2d30:	e0 63 28 00 	l.add r3,r3,r5
    2d34:	9c a0 00 20 	l.addi r5,r0,0x20
    2d38:	8c 63 00 00 	l.lbz r3,0x0(r3)
    2d3c:	e0 83 20 00 	l.add r4,r3,r4
    2d40:	e0 a5 20 02 	l.sub r5,r5,r4
    2d44:	bc 25 00 00 	l.sfnei r5,0x0
    2d48:	10 00 00 aa 	l.bf 2ff0 <__udivdi3+0x560>
    2d4c:	e2 ce 20 48 	l.srl r22,r14,r4
    2d50:	ba 42 00 50 	l.srli r18,r2,0x10
    2d54:	e1 ce 10 02 	l.sub r14,r14,r2
    2d58:	a6 02 ff ff 	l.andi r16,r2,0xffff
    2d5c:	9f 00 00 01 	l.addi r24,r0,0x1
    2d60:	a8 6e 00 00 	l.ori r3,r14,0x0
    2d64:	04 00 0b e5 	l.jal 5cf8 <__umodsi3>
    2d68:	a8 92 00 00 	l.ori r4,r18,0x0
    2d6c:	a8 6e 00 00 	l.ori r3,r14,0x0
    2d70:	a8 92 00 00 	l.ori r4,r18,0x0
    2d74:	04 00 0b a2 	l.jal 5bfc <__udivsi3>
    2d78:	aa cb 00 00 	l.ori r22,r11,0x0
    2d7c:	e0 ab 83 06 	l.mul r5,r11,r16
    2d80:	b8 76 00 10 	l.slli r3,r22,0x10
    2d84:	b8 94 00 50 	l.srli r4,r20,0x10
    2d88:	e0 63 20 04 	l.or r3,r3,r4
    2d8c:	e4 a5 18 00 	l.sfleu r5,r3
    2d90:	10 00 00 09 	l.bf 2db4 <__udivdi3+0x324>
    2d94:	a9 cb 00 00 	l.ori r14,r11,0x0
    2d98:	e0 63 10 00 	l.add r3,r3,r2
    2d9c:	e4 42 18 00 	l.sfgtu r2,r3
    2da0:	10 00 00 05 	l.bf 2db4 <__udivdi3+0x324>
    2da4:	9d cb ff ff 	l.addi r14,r11,0xffffffff
    2da8:	e4 a5 18 00 	l.sfleu r5,r3
    2dac:	0c 00 00 dd 	l.bnf 3120 <__udivdi3+0x690>
    2db0:	15 00 00 00 	l.nop 0x0
    2db4:	e2 c3 28 02 	l.sub r22,r3,r5
    2db8:	a8 92 00 00 	l.ori r4,r18,0x0
    2dbc:	a8 76 00 00 	l.ori r3,r22,0x0
    2dc0:	04 00 0b ce 	l.jal 5cf8 <__umodsi3>
    2dc4:	a6 94 ff ff 	l.andi r20,r20,0xffff
    2dc8:	a8 76 00 00 	l.ori r3,r22,0x0
    2dcc:	a8 92 00 00 	l.ori r4,r18,0x0
    2dd0:	04 00 0b 8b 	l.jal 5bfc <__udivsi3>
    2dd4:	ab 4b 00 00 	l.ori r26,r11,0x0
    2dd8:	a8 6b 00 00 	l.ori r3,r11,0x0
    2ddc:	b9 7a 00 10 	l.slli r11,r26,0x10
    2de0:	e2 03 83 06 	l.mul r16,r3,r16
    2de4:	e2 8b a0 04 	l.or r20,r11,r20
    2de8:	e4 b0 a0 00 	l.sfleu r16,r20
    2dec:	10 00 00 09 	l.bf 2e10 <__udivdi3+0x380>
    2df0:	e2 94 10 00 	l.add r20,r20,r2
    2df4:	e4 42 a0 00 	l.sfgtu r2,r20
    2df8:	10 00 00 06 	l.bf 2e10 <__udivdi3+0x380>
    2dfc:	9c 63 ff ff 	l.addi r3,r3,0xffffffff
    2e00:	e4 b0 a0 00 	l.sfleu r16,r20
    2e04:	10 00 00 03 	l.bf 2e10 <__udivdi3+0x380>
    2e08:	15 00 00 00 	l.nop 0x0
    2e0c:	9c 63 ff ff 	l.addi r3,r3,0xffffffff
    2e10:	b9 6e 00 10 	l.slli r11,r14,0x10
    2e14:	a8 98 00 00 	l.ori r4,r24,0x0
    2e18:	03 ff ff a8 	l.j 2cb8 <__udivdi3+0x228>
    2e1c:	e1 63 58 04 	l.or r11,r3,r11
    2e20:	03 ff ff a5 	l.j 2cb4 <__udivdi3+0x224>
    2e24:	9d 60 00 00 	l.addi r11,r0,0x0
    2e28:	10 00 00 ac 	l.bf 30d8 <__udivdi3+0x648>
    2e2c:	15 00 00 00 	l.nop 0x0
    2e30:	9c 40 00 00 	l.addi r2,r0,0x0
    2e34:	03 ff ff 86 	l.j 2c4c <__udivdi3+0x1bc>
    2e38:	a8 62 00 00 	l.ori r3,r2,0x0
    2e3c:	0c 00 00 6b 	l.bnf 2fe8 <__udivdi3+0x558>
    2e40:	15 00 00 00 	l.nop 0x0
    2e44:	9c a0 00 08 	l.addi r5,r0,0x8
    2e48:	03 ff ff 33 	l.j 2b14 <__udivdi3+0x84>
    2e4c:	a8 65 00 00 	l.ori r3,r5,0x0
    2e50:	04 00 0b 6b 	l.jal 5bfc <__udivsi3>
    2e54:	9c 60 00 01 	l.addi r3,r0,0x1
    2e58:	a8 4b 00 00 	l.ori r2,r11,0x0
    2e5c:	9c 60 00 00 	l.addi r3,r0,0x0
    2e60:	03 ff ff b1 	l.j 2d24 <__udivdi3+0x294>
    2e64:	a8 83 00 00 	l.ori r4,r3,0x0
    2e68:	9d 60 00 01 	l.addi r11,r0,0x1
    2e6c:	03 ff ff 93 	l.j 2cb8 <__udivdi3+0x228>
    2e70:	9c 80 00 00 	l.addi r4,r0,0x0
    2e74:	e0 a5 10 08 	l.sll r5,r5,r2
    2e78:	e2 ce 20 48 	l.srl r22,r14,r4
    2e7c:	e0 90 20 48 	l.srl r4,r16,r4
    2e80:	e2 45 18 04 	l.or r18,r5,r3
    2e84:	e1 ce 10 08 	l.sll r14,r14,r2
    2e88:	ba 92 00 50 	l.srli r20,r18,0x10
    2e8c:	a8 76 00 00 	l.ori r3,r22,0x0
    2e90:	e1 ce 20 04 	l.or r14,r14,r4
    2e94:	a8 94 00 00 	l.ori r4,r20,0x0
    2e98:	04 00 0b 98 	l.jal 5cf8 <__umodsi3>
    2e9c:	e3 46 10 08 	l.sll r26,r6,r2
    2ea0:	a8 76 00 00 	l.ori r3,r22,0x0
    2ea4:	a8 94 00 00 	l.ori r4,r20,0x0
    2ea8:	a7 92 ff ff 	l.andi r28,r18,0xffff
    2eac:	04 00 0b 54 	l.jal 5bfc <__udivsi3>
    2eb0:	ab 0b 00 00 	l.ori r24,r11,0x0
    2eb4:	e1 0b e3 06 	l.mul r8,r11,r28
    2eb8:	b8 b8 00 10 	l.slli r5,r24,0x10
    2ebc:	b8 6e 00 50 	l.srli r3,r14,0x10
    2ec0:	e0 a5 18 04 	l.or r5,r5,r3
    2ec4:	e4 a8 28 00 	l.sfleu r8,r5
    2ec8:	10 00 00 0b 	l.bf 2ef4 <__udivdi3+0x464>
    2ecc:	aa cb 00 00 	l.ori r22,r11,0x0
    2ed0:	e0 a5 90 00 	l.add r5,r5,r18
    2ed4:	e4 52 28 00 	l.sfgtu r18,r5
    2ed8:	10 00 00 07 	l.bf 2ef4 <__udivdi3+0x464>
    2edc:	9e cb ff ff 	l.addi r22,r11,0xffffffff
    2ee0:	e4 a8 28 00 	l.sfleu r8,r5
    2ee4:	10 00 00 05 	l.bf 2ef8 <__udivdi3+0x468>
    2ee8:	e3 05 40 02 	l.sub r24,r5,r8
    2eec:	9e d6 ff ff 	l.addi r22,r22,0xffffffff
    2ef0:	e0 a5 90 00 	l.add r5,r5,r18
    2ef4:	e3 05 40 02 	l.sub r24,r5,r8
    2ef8:	a8 94 00 00 	l.ori r4,r20,0x0
    2efc:	a8 78 00 00 	l.ori r3,r24,0x0
    2f00:	04 00 0b 7e 	l.jal 5cf8 <__umodsi3>
    2f04:	a5 ce ff ff 	l.andi r14,r14,0xffff
    2f08:	a8 78 00 00 	l.ori r3,r24,0x0
    2f0c:	a8 94 00 00 	l.ori r4,r20,0x0
    2f10:	04 00 0b 3b 	l.jal 5bfc <__udivsi3>
    2f14:	ab cb 00 00 	l.ori r30,r11,0x0
    2f18:	e0 eb e3 06 	l.mul r7,r11,r28
    2f1c:	b8 7e 00 10 	l.slli r3,r30,0x10
    2f20:	e0 63 70 04 	l.or r3,r3,r14
    2f24:	e4 a7 18 00 	l.sfleu r7,r3
    2f28:	10 00 00 06 	l.bf 2f40 <__udivdi3+0x4b0>
    2f2c:	a8 ab 00 00 	l.ori r5,r11,0x0
    2f30:	e0 63 90 00 	l.add r3,r3,r18
    2f34:	e4 52 18 00 	l.sfgtu r18,r3
    2f38:	0c 00 00 71 	l.bnf 30fc <__udivdi3+0x66c>
    2f3c:	9c ab ff ff 	l.addi r5,r11,0xffffffff
    2f40:	b9 76 00 10 	l.slli r11,r22,0x10
    2f44:	a5 9a ff ff 	l.andi r12,r26,0xffff
    2f48:	b8 da 00 50 	l.srli r6,r26,0x10
    2f4c:	e1 65 58 04 	l.or r11,r5,r11
    2f50:	e0 63 38 02 	l.sub r3,r3,r7
    2f54:	a4 8b ff ff 	l.andi r4,r11,0xffff
    2f58:	b9 0b 00 50 	l.srli r8,r11,0x10
    2f5c:	e1 a4 63 06 	l.mul r13,r4,r12
    2f60:	e0 a8 63 06 	l.mul r5,r8,r12
    2f64:	e0 84 33 06 	l.mul r4,r4,r6
    2f68:	b8 ed 00 50 	l.srli r7,r13,0x10
    2f6c:	e0 85 20 00 	l.add r4,r5,r4
    2f70:	e0 84 38 00 	l.add r4,r4,r7
    2f74:	e4 a5 20 00 	l.sfleu r5,r4
    2f78:	10 00 00 04 	l.bf 2f88 <__udivdi3+0x4f8>
    2f7c:	e0 c8 33 06 	l.mul r6,r8,r6
    2f80:	18 a0 00 01 	l.movhi r5,0x1
    2f84:	e0 c6 28 00 	l.add r6,r6,r5
    2f88:	b8 a4 00 50 	l.srli r5,r4,0x10
    2f8c:	e0 c6 28 00 	l.add r6,r6,r5
    2f90:	e4 83 30 00 	l.sfltu r3,r6
    2f94:	10 00 00 12 	l.bf 2fdc <__udivdi3+0x54c>
    2f98:	e0 c3 30 05 	l.xor r6,r3,r6
    2f9c:	e0 60 30 02 	l.sub r3,r0,r6
    2fa0:	e0 c3 30 04 	l.or r6,r3,r6
    2fa4:	bd 86 00 00 	l.sfltsi r6,0x0
    2fa8:	13 ff ff b1 	l.bf 2e6c <__udivdi3+0x3dc>
    2fac:	a5 ad ff ff 	l.andi r13,r13,0xffff
    2fb0:	b8 84 00 10 	l.slli r4,r4,0x10
    2fb4:	e0 50 10 08 	l.sll r2,r16,r2
    2fb8:	e0 84 68 00 	l.add r4,r4,r13
    2fbc:	e4 82 20 00 	l.sfltu r2,r4
    2fc0:	10 00 00 03 	l.bf 2fcc <__udivdi3+0x53c>
    2fc4:	9c 60 00 01 	l.addi r3,r0,0x1
    2fc8:	9c 60 00 00 	l.addi r3,r0,0x0
    2fcc:	a4 63 00 ff 	l.andi r3,r3,0xff
    2fd0:	bc 23 00 00 	l.sfnei r3,0x0
    2fd4:	0f ff ff a6 	l.bnf 2e6c <__udivdi3+0x3dc>
    2fd8:	15 00 00 00 	l.nop 0x0
    2fdc:	9d 6b ff ff 	l.addi r11,r11,0xffffffff
    2fe0:	03 ff ff 36 	l.j 2cb8 <__udivdi3+0x228>
    2fe4:	9c 80 00 00 	l.addi r4,r0,0x0
    2fe8:	03 ff fe cb 	l.j 2b14 <__udivdi3+0x84>
    2fec:	a8 65 00 00 	l.ori r3,r5,0x0
    2ff0:	e0 42 28 08 	l.sll r2,r2,r5
    2ff4:	e0 d0 20 48 	l.srl r6,r16,r4
    2ff8:	ba 42 00 50 	l.srli r18,r2,0x10
    2ffc:	e1 ce 28 08 	l.sll r14,r14,r5
    3000:	a8 76 00 00 	l.ori r3,r22,0x0
    3004:	a8 92 00 00 	l.ori r4,r18,0x0
    3008:	e3 4e 30 04 	l.or r26,r14,r6
    300c:	04 00 0b 3b 	l.jal 5cf8 <__umodsi3>
    3010:	e2 90 28 08 	l.sll r20,r16,r5
    3014:	a8 76 00 00 	l.ori r3,r22,0x0
    3018:	a8 92 00 00 	l.ori r4,r18,0x0
    301c:	a6 02 ff ff 	l.andi r16,r2,0xffff
    3020:	04 00 0a f7 	l.jal 5bfc <__udivsi3>
    3024:	a9 cb 00 00 	l.ori r14,r11,0x0
    3028:	e0 ab 83 06 	l.mul r5,r11,r16
    302c:	b8 6e 00 10 	l.slli r3,r14,0x10
    3030:	b8 9a 00 50 	l.srli r4,r26,0x10
    3034:	e0 63 20 04 	l.or r3,r3,r4
    3038:	e4 a5 18 00 	l.sfleu r5,r3
    303c:	10 00 00 0b 	l.bf 3068 <__udivdi3+0x5d8>
    3040:	aa cb 00 00 	l.ori r22,r11,0x0
    3044:	e0 63 10 00 	l.add r3,r3,r2
    3048:	e4 42 18 00 	l.sfgtu r2,r3
    304c:	10 00 00 07 	l.bf 3068 <__udivdi3+0x5d8>
    3050:	9e cb ff ff 	l.addi r22,r11,0xffffffff
    3054:	e4 a5 18 00 	l.sfleu r5,r3
    3058:	10 00 00 05 	l.bf 306c <__udivdi3+0x5dc>
    305c:	e3 03 28 02 	l.sub r24,r3,r5
    3060:	9e d6 ff ff 	l.addi r22,r22,0xffffffff
    3064:	e0 63 10 00 	l.add r3,r3,r2
    3068:	e3 03 28 02 	l.sub r24,r3,r5
    306c:	a8 92 00 00 	l.ori r4,r18,0x0
    3070:	a8 78 00 00 	l.ori r3,r24,0x0
    3074:	04 00 0b 21 	l.jal 5cf8 <__umodsi3>
    3078:	a7 5a ff ff 	l.andi r26,r26,0xffff
    307c:	a8 78 00 00 	l.ori r3,r24,0x0
    3080:	a8 92 00 00 	l.ori r4,r18,0x0
    3084:	04 00 0a de 	l.jal 5bfc <__udivsi3>
    3088:	a9 cb 00 00 	l.ori r14,r11,0x0
    308c:	e0 ab 83 06 	l.mul r5,r11,r16
    3090:	b9 ce 00 10 	l.slli r14,r14,0x10
    3094:	e1 ce d0 04 	l.or r14,r14,r26
    3098:	e4 a5 70 00 	l.sfleu r5,r14
    309c:	10 00 00 0b 	l.bf 30c8 <__udivdi3+0x638>
    30a0:	a8 6b 00 00 	l.ori r3,r11,0x0
    30a4:	e1 ce 10 00 	l.add r14,r14,r2
    30a8:	e4 42 70 00 	l.sfgtu r2,r14
    30ac:	10 00 00 07 	l.bf 30c8 <__udivdi3+0x638>
    30b0:	9c 6b ff ff 	l.addi r3,r11,0xffffffff
    30b4:	e4 a5 70 00 	l.sfleu r5,r14
    30b8:	10 00 00 04 	l.bf 30c8 <__udivdi3+0x638>
    30bc:	15 00 00 00 	l.nop 0x0
    30c0:	9c 63 ff ff 	l.addi r3,r3,0xffffffff
    30c4:	e1 ce 10 00 	l.add r14,r14,r2
    30c8:	ba d6 00 10 	l.slli r22,r22,0x10
    30cc:	e1 ce 28 02 	l.sub r14,r14,r5
    30d0:	03 ff ff 24 	l.j 2d60 <__udivdi3+0x2d0>
    30d4:	e3 03 b0 04 	l.or r24,r3,r22
    30d8:	9c 40 00 08 	l.addi r2,r0,0x8
    30dc:	03 ff fe dc 	l.j 2c4c <__udivdi3+0x1bc>
    30e0:	a8 62 00 00 	l.ori r3,r2,0x0
    30e4:	03 ff fe da 	l.j 2c4c <__udivdi3+0x1bc>
    30e8:	a8 62 00 00 	l.ori r3,r2,0x0
    30ec:	03 ff ff 0e 	l.j 2d24 <__udivdi3+0x294>
    30f0:	a8 83 00 00 	l.ori r4,r3,0x0
    30f4:	03 ff fe ec 	l.j 2ca4 <__udivdi3+0x214>
    30f8:	a9 63 00 00 	l.ori r11,r3,0x0
    30fc:	e4 a7 18 00 	l.sfleu r7,r3
    3100:	13 ff ff 91 	l.bf 2f44 <__udivdi3+0x4b4>
    3104:	b9 76 00 10 	l.slli r11,r22,0x10
    3108:	9c a5 ff ff 	l.addi r5,r5,0xffffffff
    310c:	03 ff ff 8e 	l.j 2f44 <__udivdi3+0x4b4>
    3110:	e0 63 90 00 	l.add r3,r3,r18
    3114:	9e 10 ff ff 	l.addi r16,r16,0xffffffff
    3118:	03 ff fe a5 	l.j 2bac <__udivdi3+0x11c>
    311c:	e0 63 10 00 	l.add r3,r3,r2
    3120:	9d ce ff ff 	l.addi r14,r14,0xffffffff
    3124:	03 ff ff 24 	l.j 2db4 <__udivdi3+0x324>
    3128:	e0 63 10 00 	l.add r3,r3,r2
    312c:	bc 42 00 ff 	l.sfgtui r2,0xff
    3130:	0f ff ff 4b 	l.bnf 2e5c <__udivdi3+0x3cc>
    3134:	15 00 00 00 	l.nop 0x0
    3138:	9c 60 00 08 	l.addi r3,r0,0x8
    313c:	03 ff fe fa 	l.j 2d24 <__udivdi3+0x294>
    3140:	a8 83 00 00 	l.ori r4,r3,0x0

00003144 <_fpadd_parts>:
    3144:	d7 e1 17 fc 	l.sw 0xfffffffc(r1),r2
    3148:	84 c3 00 00 	l.lwz r6,0x0(r3)
    314c:	bc a6 00 01 	l.sfleui r6,0x1
    3150:	10 00 00 4e 	l.bf 3288 <_fpadd_parts+0x144>
    3154:	9c 21 ff fc 	l.addi r1,r1,0xfffffffc
    3158:	84 e4 00 00 	l.lwz r7,0x0(r4)
    315c:	bc a7 00 01 	l.sfleui r7,0x1
    3160:	10 00 00 6e 	l.bf 3318 <_fpadd_parts+0x1d4>
    3164:	bc 26 00 04 	l.sfnei r6,0x4
    3168:	0c 00 00 83 	l.bnf 3374 <_fpadd_parts+0x230>
    316c:	bc 07 00 04 	l.sfeqi r7,0x4
    3170:	10 00 00 6a 	l.bf 3318 <_fpadd_parts+0x1d4>
    3174:	bc 27 00 02 	l.sfnei r7,0x2
    3178:	0c 00 00 55 	l.bnf 32cc <_fpadd_parts+0x188>
    317c:	bc 06 00 02 	l.sfeqi r6,0x2
    3180:	10 00 00 66 	l.bf 3318 <_fpadd_parts+0x1d4>
    3184:	15 00 00 00 	l.nop 0x0
    3188:	84 e3 00 08 	l.lwz r7,0x8(r3)
    318c:	85 a4 00 08 	l.lwz r13,0x8(r4)
    3190:	85 83 00 0c 	l.lwz r12,0xc(r3)
    3194:	e1 67 68 02 	l.sub r11,r7,r13
    3198:	b9 eb 00 9f 	l.srai r15,r11,0x1f
    319c:	e0 cf 58 05 	l.xor r6,r15,r11
    31a0:	e0 c6 78 02 	l.sub r6,r6,r15
    31a4:	bd 46 00 1f 	l.sfgtsi r6,0x1f
    31a8:	10 00 00 3c 	l.bf 3298 <_fpadd_parts+0x154>
    31ac:	85 04 00 0c 	l.lwz r8,0xc(r4)
    31b0:	bd ab 00 00 	l.sflesi r11,0x0
    31b4:	10 00 00 64 	l.bf 3344 <_fpadd_parts+0x200>
    31b8:	9d a0 00 01 	l.addi r13,r0,0x1
    31bc:	e1 68 30 48 	l.srl r11,r8,r6
    31c0:	e0 cd 30 08 	l.sll r6,r13,r6
    31c4:	9c c6 ff ff 	l.addi r6,r6,0xffffffff
    31c8:	e1 06 40 03 	l.and r8,r6,r8
    31cc:	e0 c0 40 02 	l.sub r6,r0,r8
    31d0:	e1 06 40 04 	l.or r8,r6,r8
    31d4:	b9 08 00 5f 	l.srli r8,r8,0x1f
    31d8:	e1 08 58 04 	l.or r8,r8,r11
    31dc:	84 63 00 04 	l.lwz r3,0x4(r3)
    31e0:	84 84 00 04 	l.lwz r4,0x4(r4)
    31e4:	e4 03 20 00 	l.sfeq r3,r4
    31e8:	10 00 00 35 	l.bf 32bc <_fpadd_parts+0x178>
    31ec:	e0 88 60 00 	l.add r4,r8,r12
    31f0:	bc 03 00 00 	l.sfeqi r3,0x0
    31f4:	10 00 00 03 	l.bf 3200 <_fpadd_parts+0xbc>
    31f8:	e0 8c 40 02 	l.sub r4,r12,r8
    31fc:	e0 88 60 02 	l.sub r4,r8,r12
    3200:	bd 84 00 00 	l.sfltsi r4,0x0
    3204:	10 00 00 4a 	l.bf 332c <_fpadd_parts+0x1e8>
    3208:	9c 40 00 00 	l.addi r2,r0,0x0
    320c:	d4 05 38 08 	l.sw 0x8(r5),r7
    3210:	d4 05 10 04 	l.sw 0x4(r5),r2
    3214:	d4 05 20 0c 	l.sw 0xc(r5),r4
    3218:	18 40 3f ff 	l.movhi r2,0x3fff
    321c:	9c 64 ff ff 	l.addi r3,r4,0xffffffff
    3220:	a8 42 ff fe 	l.ori r2,r2,0xfffe
    3224:	e4 43 10 00 	l.sfgtu r3,r2
    3228:	10 00 00 0d 	l.bf 325c <_fpadd_parts+0x118>
    322c:	9c c0 00 03 	l.addi r6,r0,0x3
    3230:	84 65 00 08 	l.lwz r3,0x8(r5)
    3234:	e0 84 20 00 	l.add r4,r4,r4
    3238:	18 40 3f ff 	l.movhi r2,0x3fff
    323c:	9c c4 ff ff 	l.addi r6,r4,0xffffffff
    3240:	a8 42 ff fe 	l.ori r2,r2,0xfffe
    3244:	e4 a6 10 00 	l.sfleu r6,r2
    3248:	13 ff ff fb 	l.bf 3234 <_fpadd_parts+0xf0>
    324c:	9c 63 ff ff 	l.addi r3,r3,0xffffffff
    3250:	d4 05 20 0c 	l.sw 0xc(r5),r4
    3254:	d4 05 18 08 	l.sw 0x8(r5),r3
    3258:	9c c0 00 03 	l.addi r6,r0,0x3
    325c:	a8 65 00 00 	l.ori r3,r5,0x0
    3260:	bd 64 00 00 	l.sfgesi r4,0x0
    3264:	10 00 00 09 	l.bf 3288 <_fpadd_parts+0x144>
    3268:	d4 05 30 00 	l.sw 0x0(r5),r6
    326c:	b8 c4 00 41 	l.srli r6,r4,0x1
    3270:	84 a5 00 08 	l.lwz r5,0x8(r5)
    3274:	a4 84 00 01 	l.andi r4,r4,0x1
    3278:	9c a5 00 01 	l.addi r5,r5,0x1
    327c:	e0 84 30 04 	l.or r4,r4,r6
    3280:	d4 03 28 08 	l.sw 0x8(r3),r5
    3284:	d4 03 20 0c 	l.sw 0xc(r3),r4
    3288:	9c 21 00 04 	l.addi r1,r1,0x4
    328c:	a9 63 00 00 	l.ori r11,r3,0x0
    3290:	44 00 48 00 	l.jr r9
    3294:	84 41 ff fc 	l.lwz r2,0xfffffffc(r1)
    3298:	e5 a7 68 00 	l.sfles r7,r13
    329c:	10 00 00 1c 	l.bf 330c <_fpadd_parts+0x1c8>
    32a0:	15 00 00 00 	l.nop 0x0
    32a4:	84 63 00 04 	l.lwz r3,0x4(r3)
    32a8:	84 84 00 04 	l.lwz r4,0x4(r4)
    32ac:	e4 03 20 00 	l.sfeq r3,r4
    32b0:	0f ff ff d0 	l.bnf 31f0 <_fpadd_parts+0xac>
    32b4:	9d 00 00 00 	l.addi r8,r0,0x0
    32b8:	e0 88 60 00 	l.add r4,r8,r12
    32bc:	d4 05 18 04 	l.sw 0x4(r5),r3
    32c0:	d4 05 38 08 	l.sw 0x8(r5),r7
    32c4:	03 ff ff e5 	l.j 3258 <_fpadd_parts+0x114>
    32c8:	d4 05 20 0c 	l.sw 0xc(r5),r4
    32cc:	bc 26 00 02 	l.sfnei r6,0x2
    32d0:	13 ff ff ee 	l.bf 3288 <_fpadd_parts+0x144>
    32d4:	15 00 00 00 	l.nop 0x0
    32d8:	d4 05 30 00 	l.sw 0x0(r5),r6
    32dc:	84 c3 00 04 	l.lwz r6,0x4(r3)
    32e0:	d4 05 30 04 	l.sw 0x4(r5),r6
    32e4:	84 c3 00 08 	l.lwz r6,0x8(r3)
    32e8:	d4 05 30 08 	l.sw 0x8(r5),r6
    32ec:	84 c3 00 0c 	l.lwz r6,0xc(r3)
    32f0:	d4 05 30 0c 	l.sw 0xc(r5),r6
    32f4:	84 c3 00 04 	l.lwz r6,0x4(r3)
    32f8:	84 84 00 04 	l.lwz r4,0x4(r4)
    32fc:	a8 65 00 00 	l.ori r3,r5,0x0
    3300:	e0 84 30 03 	l.and r4,r4,r6
    3304:	03 ff ff e1 	l.j 3288 <_fpadd_parts+0x144>
    3308:	d4 05 20 04 	l.sw 0x4(r5),r4
    330c:	a8 ed 00 00 	l.ori r7,r13,0x0
    3310:	03 ff ff b3 	l.j 31dc <_fpadd_parts+0x98>
    3314:	9d 80 00 00 	l.addi r12,r0,0x0
    3318:	a8 64 00 00 	l.ori r3,r4,0x0
    331c:	9c 21 00 04 	l.addi r1,r1,0x4
    3320:	a9 63 00 00 	l.ori r11,r3,0x0
    3324:	44 00 48 00 	l.jr r9
    3328:	84 41 ff fc 	l.lwz r2,0xfffffffc(r1)
    332c:	e0 80 20 02 	l.sub r4,r0,r4
    3330:	9c 60 00 01 	l.addi r3,r0,0x1
    3334:	d4 05 38 08 	l.sw 0x8(r5),r7
    3338:	d4 05 18 04 	l.sw 0x4(r5),r3
    333c:	03 ff ff b7 	l.j 3218 <_fpadd_parts+0xd4>
    3340:	d4 05 20 0c 	l.sw 0xc(r5),r4
    3344:	bc 0b 00 00 	l.sfeqi r11,0x0
    3348:	13 ff ff a5 	l.bf 31dc <_fpadd_parts+0x98>
    334c:	e1 6c 30 48 	l.srl r11,r12,r6
    3350:	e1 ad 30 08 	l.sll r13,r13,r6
    3354:	e0 e7 30 00 	l.add r7,r7,r6
    3358:	9c cd ff ff 	l.addi r6,r13,0xffffffff
    335c:	e1 86 60 03 	l.and r12,r6,r12
    3360:	e0 c0 60 02 	l.sub r6,r0,r12
    3364:	e1 86 60 04 	l.or r12,r6,r12
    3368:	b9 8c 00 5f 	l.srli r12,r12,0x1f
    336c:	03 ff ff 9c 	l.j 31dc <_fpadd_parts+0x98>
    3370:	e1 8c 58 04 	l.or r12,r12,r11
    3374:	bc 27 00 04 	l.sfnei r7,0x4
    3378:	13 ff ff c4 	l.bf 3288 <_fpadd_parts+0x144>
    337c:	15 00 00 00 	l.nop 0x0
    3380:	84 a3 00 04 	l.lwz r5,0x4(r3)
    3384:	84 84 00 04 	l.lwz r4,0x4(r4)
    3388:	e4 25 20 00 	l.sfne r5,r4
    338c:	0f ff ff bf 	l.bnf 3288 <_fpadd_parts+0x144>
    3390:	15 00 00 00 	l.nop 0x0
    3394:	18 60 00 00 	l.movhi r3,0x0
    3398:	03 ff ff bc 	l.j 3288 <_fpadd_parts+0x144>
    339c:	a8 63 60 30 	l.ori r3,r3,0x6030

000033a0 <__pack_f>:
    33a0:	d7 e1 17 fc 	l.sw 0xfffffffc(r1),r2
    33a4:	84 a3 00 00 	l.lwz r5,0x0(r3)
    33a8:	9c 21 ff fc 	l.addi r1,r1,0xfffffffc
    33ac:	84 83 00 0c 	l.lwz r4,0xc(r3)
    33b0:	bc 45 00 01 	l.sfgtui r5,0x1
    33b4:	0c 00 00 3d 	l.bnf 34a8 <__pack_f+0x108>
    33b8:	84 c3 00 04 	l.lwz r6,0x4(r3)
    33bc:	bc 05 00 04 	l.sfeqi r5,0x4
    33c0:	10 00 00 37 	l.bf 349c <__pack_f+0xfc>
    33c4:	bc 05 00 02 	l.sfeqi r5,0x2
    33c8:	10 00 00 24 	l.bf 3458 <__pack_f+0xb8>
    33cc:	bc 04 00 00 	l.sfeqi r4,0x0
    33d0:	10 00 00 1b 	l.bf 343c <__pack_f+0x9c>
    33d4:	15 00 00 00 	l.nop 0x0
    33d8:	84 63 00 08 	l.lwz r3,0x8(r3)
    33dc:	bd 63 ff 82 	l.sfgesi r3,0xffffff82
    33e0:	0c 00 00 39 	l.bnf 34c4 <__pack_f+0x124>
    33e4:	bd 43 00 7f 	l.sfgtsi r3,0x7f
    33e8:	10 00 00 2d 	l.bf 349c <__pack_f+0xfc>
    33ec:	a4 a4 00 7f 	l.andi r5,r4,0x7f
    33f0:	bc 25 00 40 	l.sfnei r5,0x40
    33f4:	0c 00 00 21 	l.bnf 3478 <__pack_f+0xd8>
    33f8:	9c 63 00 7f 	l.addi r3,r3,0x7f
    33fc:	9c 84 00 3f 	l.addi r4,r4,0x3f
    3400:	bd 64 00 00 	l.sfgesi r4,0x0
    3404:	0c 00 00 23 	l.bnf 3490 <__pack_f+0xf0>
    3408:	15 00 00 00 	l.nop 0x0
    340c:	18 40 00 7f 	l.movhi r2,0x7f
    3410:	b8 a4 00 47 	l.srli r5,r4,0x7
    3414:	a8 42 ff ff 	l.ori r2,r2,0xffff
    3418:	a4 83 00 ff 	l.andi r4,r3,0xff
    341c:	e0 65 10 03 	l.and r3,r5,r2
    3420:	b8 84 00 17 	l.slli r4,r4,0x17
    3424:	b8 a6 00 1f 	l.slli r5,r6,0x1f
    3428:	e0 83 20 04 	l.or r4,r3,r4
    342c:	9c 21 00 04 	l.addi r1,r1,0x4
    3430:	e1 64 28 04 	l.or r11,r4,r5
    3434:	44 00 48 00 	l.jr r9
    3438:	84 41 ff fc 	l.lwz r2,0xfffffffc(r1)
    343c:	a8 64 00 00 	l.ori r3,r4,0x0
    3440:	b8 a6 00 1f 	l.slli r5,r6,0x1f
    3444:	e0 83 20 04 	l.or r4,r3,r4
    3448:	9c 21 00 04 	l.addi r1,r1,0x4
    344c:	e1 64 28 04 	l.or r11,r4,r5
    3450:	44 00 48 00 	l.jr r9
    3454:	84 41 ff fc 	l.lwz r2,0xfffffffc(r1)
    3458:	9c 80 00 00 	l.addi r4,r0,0x0
    345c:	b8 a6 00 1f 	l.slli r5,r6,0x1f
    3460:	a8 64 00 00 	l.ori r3,r4,0x0
    3464:	9c 21 00 04 	l.addi r1,r1,0x4
    3468:	e0 83 20 04 	l.or r4,r3,r4
    346c:	84 41 ff fc 	l.lwz r2,0xfffffffc(r1)
    3470:	44 00 48 00 	l.jr r9
    3474:	e1 64 28 04 	l.or r11,r4,r5
    3478:	a4 a4 00 80 	l.andi r5,r4,0x80
    347c:	bc 05 00 00 	l.sfeqi r5,0x0
    3480:	13 ff ff e1 	l.bf 3404 <__pack_f+0x64>
    3484:	bd 64 00 00 	l.sfgesi r4,0x0
    3488:	03 ff ff de 	l.j 3400 <__pack_f+0x60>
    348c:	9c 84 00 40 	l.addi r4,r4,0x40
    3490:	b8 84 00 41 	l.srli r4,r4,0x1
    3494:	03 ff ff de 	l.j 340c <__pack_f+0x6c>
    3498:	9c 63 00 01 	l.addi r3,r3,0x1
    349c:	18 80 7f 80 	l.movhi r4,0x7f80
    34a0:	03 ff ff e1 	l.j 3424 <__pack_f+0x84>
    34a4:	9c 60 00 00 	l.addi r3,r0,0x0
    34a8:	18 40 00 10 	l.movhi r2,0x10
    34ac:	e0 64 10 04 	l.or r3,r4,r2
    34b0:	18 40 00 7f 	l.movhi r2,0x7f
    34b4:	18 80 7f 80 	l.movhi r4,0x7f80
    34b8:	a8 42 ff ff 	l.ori r2,r2,0xffff
    34bc:	03 ff ff da 	l.j 3424 <__pack_f+0x84>
    34c0:	e0 63 10 03 	l.and r3,r3,r2
    34c4:	9c e0 ff 82 	l.addi r7,r0,0xffffff82
    34c8:	e0 67 18 02 	l.sub r3,r7,r3
    34cc:	bd 43 00 19 	l.sfgtsi r3,0x19
    34d0:	10 00 00 1f 	l.bf 354c <__pack_f+0x1ac>
    34d4:	9c a0 00 00 	l.addi r5,r0,0x0
    34d8:	9c e0 00 01 	l.addi r7,r0,0x1
    34dc:	e0 a4 18 48 	l.srl r5,r4,r3
    34e0:	e0 67 18 08 	l.sll r3,r7,r3
    34e4:	9c 63 ff ff 	l.addi r3,r3,0xffffffff
    34e8:	e0 83 20 03 	l.and r4,r3,r4
    34ec:	e0 60 20 02 	l.sub r3,r0,r4
    34f0:	e0 63 20 04 	l.or r3,r3,r4
    34f4:	b8 63 00 5f 	l.srli r3,r3,0x1f
    34f8:	e0 a3 28 04 	l.or r5,r3,r5
    34fc:	a4 65 00 7f 	l.andi r3,r5,0x7f
    3500:	bc 23 00 40 	l.sfnei r3,0x40
    3504:	10 00 00 12 	l.bf 354c <__pack_f+0x1ac>
    3508:	15 00 00 00 	l.nop 0x0
    350c:	a4 65 00 80 	l.andi r3,r5,0x80
    3510:	bc 03 00 00 	l.sfeqi r3,0x0
    3514:	10 00 00 04 	l.bf 3524 <__pack_f+0x184>
    3518:	18 40 3f ff 	l.movhi r2,0x3fff
    351c:	9c a5 00 40 	l.addi r5,r5,0x40
    3520:	18 40 3f ff 	l.movhi r2,0x3fff
    3524:	b8 65 00 47 	l.srli r3,r5,0x7
    3528:	a8 42 ff ff 	l.ori r2,r2,0xffff
    352c:	9c 80 00 01 	l.addi r4,r0,0x1
    3530:	e4 45 10 00 	l.sfgtu r5,r2
    3534:	18 40 00 7f 	l.movhi r2,0x7f
    3538:	a8 42 ff ff 	l.ori r2,r2,0xffff
    353c:	13 ff ff b9 	l.bf 3420 <__pack_f+0x80>
    3540:	e0 63 10 03 	l.and r3,r3,r2
    3544:	03 ff ff b7 	l.j 3420 <__pack_f+0x80>
    3548:	9c 80 00 00 	l.addi r4,r0,0x0
    354c:	03 ff ff f5 	l.j 3520 <__pack_f+0x180>
    3550:	9c a5 00 3f 	l.addi r5,r5,0x3f

00003554 <__unpack_f>:
    3554:	d7 e1 17 fc 	l.sw 0xfffffffc(r1),r2
    3558:	18 40 00 7f 	l.movhi r2,0x7f
    355c:	84 a3 00 00 	l.lwz r5,0x0(r3)
    3560:	a8 42 ff ff 	l.ori r2,r2,0xffff
    3564:	b8 c5 00 57 	l.srli r6,r5,0x17
    3568:	b8 e5 00 5f 	l.srli r7,r5,0x1f
    356c:	9c 21 ff fc 	l.addi r1,r1,0xfffffffc
    3570:	a4 c6 00 ff 	l.andi r6,r6,0xff
    3574:	d4 04 38 04 	l.sw 0x4(r4),r7
    3578:	bc 26 00 00 	l.sfnei r6,0x0
    357c:	10 00 00 16 	l.bf 35d4 <__unpack_f+0x80>
    3580:	e0 65 10 03 	l.and r3,r5,r2
    3584:	bc 23 00 00 	l.sfnei r3,0x0
    3588:	0c 00 00 20 	l.bnf 3608 <__unpack_f+0xb4>
    358c:	9c a0 ff 82 	l.addi r5,r0,0xffffff82
    3590:	b8 63 00 07 	l.slli r3,r3,0x7
    3594:	d4 04 28 08 	l.sw 0x8(r4),r5
    3598:	9c a0 00 03 	l.addi r5,r0,0x3
    359c:	d4 04 28 00 	l.sw 0x0(r4),r5
    35a0:	9c a0 ff 81 	l.addi r5,r0,0xffffff81
    35a4:	18 40 3f ff 	l.movhi r2,0x3fff
    35a8:	e0 63 18 00 	l.add r3,r3,r3
    35ac:	a8 42 ff ff 	l.ori r2,r2,0xffff
    35b0:	a8 c5 00 00 	l.ori r6,r5,0x0
    35b4:	e4 a3 10 00 	l.sfleu r3,r2
    35b8:	13 ff ff fb 	l.bf 35a4 <__unpack_f+0x50>
    35bc:	9c a5 ff ff 	l.addi r5,r5,0xffffffff
    35c0:	9c 21 00 04 	l.addi r1,r1,0x4
    35c4:	d4 04 30 08 	l.sw 0x8(r4),r6
    35c8:	d4 04 18 0c 	l.sw 0xc(r4),r3
    35cc:	44 00 48 00 	l.jr r9
    35d0:	84 41 ff fc 	l.lwz r2,0xfffffffc(r1)
    35d4:	bc 26 00 ff 	l.sfnei r6,0xff
    35d8:	0c 00 00 11 	l.bnf 361c <__unpack_f+0xc8>
    35dc:	9c c6 ff 81 	l.addi r6,r6,0xffffff81
    35e0:	b8 63 00 07 	l.slli r3,r3,0x7
    35e4:	18 40 40 00 	l.movhi r2,0x4000
    35e8:	d4 04 30 08 	l.sw 0x8(r4),r6
    35ec:	e0 63 10 04 	l.or r3,r3,r2
    35f0:	9c a0 00 03 	l.addi r5,r0,0x3
    35f4:	d4 04 28 00 	l.sw 0x0(r4),r5
    35f8:	d4 04 18 0c 	l.sw 0xc(r4),r3
    35fc:	9c 21 00 04 	l.addi r1,r1,0x4
    3600:	44 00 48 00 	l.jr r9
    3604:	84 41 ff fc 	l.lwz r2,0xfffffffc(r1)
    3608:	9c 60 00 02 	l.addi r3,r0,0x2
    360c:	9c 21 00 04 	l.addi r1,r1,0x4
    3610:	d4 04 18 00 	l.sw 0x0(r4),r3
    3614:	44 00 48 00 	l.jr r9
    3618:	84 41 ff fc 	l.lwz r2,0xfffffffc(r1)
    361c:	bc 23 00 00 	l.sfnei r3,0x0
    3620:	0c 00 00 0a 	l.bnf 3648 <__unpack_f+0xf4>
    3624:	15 00 00 00 	l.nop 0x0
    3628:	18 40 00 10 	l.movhi r2,0x10
    362c:	e0 a5 10 03 	l.and r5,r5,r2
    3630:	bc 05 00 00 	l.sfeqi r5,0x0
    3634:	13 ff ff f0 	l.bf 35f4 <__unpack_f+0xa0>
    3638:	15 00 00 00 	l.nop 0x0
    363c:	9c a0 00 01 	l.addi r5,r0,0x1
    3640:	03 ff ff ee 	l.j 35f8 <__unpack_f+0xa4>
    3644:	d4 04 28 00 	l.sw 0x0(r4),r5
    3648:	9c 60 00 04 	l.addi r3,r0,0x4
    364c:	03 ff ff ec 	l.j 35fc <__unpack_f+0xa8>
    3650:	d4 04 18 00 	l.sw 0x0(r4),r3

00003654 <__addsf3>:
    3654:	d7 e1 4f fc 	l.sw 0xfffffffc(r1),r9
    3658:	d7 e1 17 f4 	l.sw 0xfffffff4(r1),r2
    365c:	d7 e1 77 f8 	l.sw 0xfffffff8(r1),r14
    3660:	9c 21 ff bc 	l.addi r1,r1,0xffffffbc
    3664:	9d c1 00 20 	l.addi r14,r1,0x20
    3668:	d4 01 18 34 	l.sw 0x34(r1),r3
    366c:	d4 01 20 30 	l.sw 0x30(r1),r4
    3670:	9c 61 00 34 	l.addi r3,r1,0x34
    3674:	a8 8e 00 00 	l.ori r4,r14,0x0
    3678:	07 ff ff b7 	l.jal 3554 <__unpack_f>
    367c:	9c 41 00 10 	l.addi r2,r1,0x10
    3680:	9c 61 00 30 	l.addi r3,r1,0x30
    3684:	07 ff ff b4 	l.jal 3554 <__unpack_f>
    3688:	a8 82 00 00 	l.ori r4,r2,0x0
    368c:	a8 6e 00 00 	l.ori r3,r14,0x0
    3690:	a8 82 00 00 	l.ori r4,r2,0x0
    3694:	07 ff fe ac 	l.jal 3144 <_fpadd_parts>
    3698:	a8 a1 00 00 	l.ori r5,r1,0x0
    369c:	07 ff ff 41 	l.jal 33a0 <__pack_f>
    36a0:	a8 6b 00 00 	l.ori r3,r11,0x0
    36a4:	9c 21 00 44 	l.addi r1,r1,0x44
    36a8:	85 21 ff fc 	l.lwz r9,0xfffffffc(r1)
    36ac:	84 41 ff f4 	l.lwz r2,0xfffffff4(r1)
    36b0:	44 00 48 00 	l.jr r9
    36b4:	85 c1 ff f8 	l.lwz r14,0xfffffff8(r1)

000036b8 <__subsf3>:
    36b8:	d7 e1 4f fc 	l.sw 0xfffffffc(r1),r9
    36bc:	d7 e1 17 f4 	l.sw 0xfffffff4(r1),r2
    36c0:	d7 e1 77 f8 	l.sw 0xfffffff8(r1),r14
    36c4:	9c 21 ff bc 	l.addi r1,r1,0xffffffbc
    36c8:	9d c1 00 20 	l.addi r14,r1,0x20
    36cc:	d4 01 18 34 	l.sw 0x34(r1),r3
    36d0:	d4 01 20 30 	l.sw 0x30(r1),r4
    36d4:	9c 61 00 34 	l.addi r3,r1,0x34
    36d8:	a8 8e 00 00 	l.ori r4,r14,0x0
    36dc:	07 ff ff 9e 	l.jal 3554 <__unpack_f>
    36e0:	9c 41 00 10 	l.addi r2,r1,0x10
    36e4:	9c 61 00 30 	l.addi r3,r1,0x30
    36e8:	07 ff ff 9b 	l.jal 3554 <__unpack_f>
    36ec:	a8 82 00 00 	l.ori r4,r2,0x0
    36f0:	84 c1 00 14 	l.lwz r6,0x14(r1)
    36f4:	a8 6e 00 00 	l.ori r3,r14,0x0
    36f8:	ac c6 00 01 	l.xori r6,r6,0x1
    36fc:	a8 82 00 00 	l.ori r4,r2,0x0
    3700:	a8 a1 00 00 	l.ori r5,r1,0x0
    3704:	07 ff fe 90 	l.jal 3144 <_fpadd_parts>
    3708:	d4 01 30 14 	l.sw 0x14(r1),r6
    370c:	07 ff ff 25 	l.jal 33a0 <__pack_f>
    3710:	a8 6b 00 00 	l.ori r3,r11,0x0
    3714:	9c 21 00 44 	l.addi r1,r1,0x44
    3718:	85 21 ff fc 	l.lwz r9,0xfffffffc(r1)
    371c:	84 41 ff f4 	l.lwz r2,0xfffffff4(r1)
    3720:	44 00 48 00 	l.jr r9
    3724:	85 c1 ff f8 	l.lwz r14,0xfffffff8(r1)

00003728 <__mulsf3>:
    3728:	d7 e1 4f fc 	l.sw 0xfffffffc(r1),r9
    372c:	d7 e1 17 f4 	l.sw 0xfffffff4(r1),r2
    3730:	d7 e1 77 f8 	l.sw 0xfffffff8(r1),r14
    3734:	9c 21 ff bc 	l.addi r1,r1,0xffffffbc
    3738:	9c 41 00 20 	l.addi r2,r1,0x20
    373c:	d4 01 18 34 	l.sw 0x34(r1),r3
    3740:	d4 01 20 30 	l.sw 0x30(r1),r4
    3744:	9c 61 00 34 	l.addi r3,r1,0x34
    3748:	a8 82 00 00 	l.ori r4,r2,0x0
    374c:	07 ff ff 82 	l.jal 3554 <__unpack_f>
    3750:	9d c1 00 10 	l.addi r14,r1,0x10
    3754:	9c 61 00 30 	l.addi r3,r1,0x30
    3758:	07 ff ff 7f 	l.jal 3554 <__unpack_f>
    375c:	a8 8e 00 00 	l.ori r4,r14,0x0
    3760:	84 a1 00 20 	l.lwz r5,0x20(r1)
    3764:	bc 45 00 01 	l.sfgtui r5,0x1
    3768:	0c 00 00 5e 	l.bnf 38e0 <__mulsf3+0x1b8>
    376c:	84 c1 00 10 	l.lwz r6,0x10(r1)
    3770:	bc 46 00 01 	l.sfgtui r6,0x1
    3774:	0c 00 00 6d 	l.bnf 3928 <__mulsf3+0x200>
    3778:	bc 25 00 04 	l.sfnei r5,0x4
    377c:	0c 00 00 55 	l.bnf 38d0 <__mulsf3+0x1a8>
    3780:	bc 26 00 04 	l.sfnei r6,0x4
    3784:	0c 00 00 65 	l.bnf 3918 <__mulsf3+0x1f0>
    3788:	bc 25 00 02 	l.sfnei r5,0x2
    378c:	0c 00 00 55 	l.bnf 38e0 <__mulsf3+0x1b8>
    3790:	bc 26 00 02 	l.sfnei r6,0x2
    3794:	0c 00 00 65 	l.bnf 3928 <__mulsf3+0x200>
    3798:	9c 60 00 00 	l.addi r3,r0,0x0
    379c:	84 81 00 1c 	l.lwz r4,0x1c(r1)
    37a0:	a8 a3 00 00 	l.ori r5,r3,0x0
    37a4:	04 00 09 5d 	l.jal 5d18 <__muldi3>
    37a8:	84 c1 00 2c 	l.lwz r6,0x2c(r1)
    37ac:	84 61 00 24 	l.lwz r3,0x24(r1)
    37b0:	84 41 00 14 	l.lwz r2,0x14(r1)
    37b4:	84 81 00 28 	l.lwz r4,0x28(r1)
    37b8:	e0 43 10 05 	l.xor r2,r3,r2
    37bc:	84 a1 00 18 	l.lwz r5,0x18(r1)
    37c0:	e0 60 10 02 	l.sub r3,r0,r2
    37c4:	e0 85 20 00 	l.add r4,r5,r4
    37c8:	e0 43 10 04 	l.or r2,r3,r2
    37cc:	9c 64 00 02 	l.addi r3,r4,0x2
    37d0:	b8 42 00 5f 	l.srli r2,r2,0x1f
    37d4:	d4 01 18 08 	l.sw 0x8(r1),r3
    37d8:	bd 6b 00 00 	l.sfgesi r11,0x0
    37dc:	d4 01 10 04 	l.sw 0x4(r1),r2
    37e0:	10 00 00 08 	l.bf 3800 <__mulsf3+0xd8>
    37e4:	a8 6b 00 00 	l.ori r3,r11,0x0
    37e8:	a4 4b 00 01 	l.andi r2,r11,0x1
    37ec:	bc 02 00 00 	l.sfeqi r2,0x0
    37f0:	0c 00 00 2a 	l.bnf 3898 <__mulsf3+0x170>
    37f4:	9c 84 00 03 	l.addi r4,r4,0x3
    37f8:	b8 6b 00 41 	l.srli r3,r11,0x1
    37fc:	d4 01 20 08 	l.sw 0x8(r1),r4
    3800:	18 40 3f ff 	l.movhi r2,0x3fff
    3804:	a8 42 ff ff 	l.ori r2,r2,0xffff
    3808:	e4 43 10 00 	l.sfgtu r3,r2
    380c:	10 00 00 14 	l.bf 385c <__mulsf3+0x134>
    3810:	84 81 00 08 	l.lwz r4,0x8(r1)
    3814:	00 00 00 08 	l.j 3834 <__mulsf3+0x10c>
    3818:	e0 63 18 00 	l.add r3,r3,r3
    381c:	18 40 3f ff 	l.movhi r2,0x3fff
    3820:	a8 42 ff ff 	l.ori r2,r2,0xffff
    3824:	e4 a3 10 00 	l.sfleu r3,r2
    3828:	0c 00 00 0c 	l.bnf 3858 <__mulsf3+0x130>
    382c:	e1 8c 60 00 	l.add r12,r12,r12
    3830:	e0 63 18 00 	l.add r3,r3,r3
    3834:	bd 6c 00 00 	l.sfgesi r12,0x0
    3838:	13 ff ff f9 	l.bf 381c <__mulsf3+0xf4>
    383c:	9c 84 ff ff 	l.addi r4,r4,0xffffffff
    3840:	18 40 3f ff 	l.movhi r2,0x3fff
    3844:	a8 63 00 01 	l.ori r3,r3,0x1
    3848:	a8 42 ff ff 	l.ori r2,r2,0xffff
    384c:	e4 a3 10 00 	l.sfleu r3,r2
    3850:	13 ff ff f8 	l.bf 3830 <__mulsf3+0x108>
    3854:	e1 8c 60 00 	l.add r12,r12,r12
    3858:	d4 01 20 08 	l.sw 0x8(r1),r4
    385c:	a4 43 00 7f 	l.andi r2,r3,0x7f
    3860:	bc 22 00 40 	l.sfnei r2,0x40
    3864:	0c 00 00 11 	l.bnf 38a8 <__mulsf3+0x180>
    3868:	a4 43 00 80 	l.andi r2,r3,0x80
    386c:	9c 40 00 03 	l.addi r2,r0,0x3
    3870:	d4 01 18 0c 	l.sw 0xc(r1),r3
    3874:	d4 01 10 00 	l.sw 0x0(r1),r2
    3878:	a8 61 00 00 	l.ori r3,r1,0x0
    387c:	07 ff fe c9 	l.jal 33a0 <__pack_f>
    3880:	15 00 00 00 	l.nop 0x0
    3884:	9c 21 00 44 	l.addi r1,r1,0x44
    3888:	85 21 ff fc 	l.lwz r9,0xfffffffc(r1)
    388c:	84 41 ff f4 	l.lwz r2,0xfffffff4(r1)
    3890:	44 00 48 00 	l.jr r9
    3894:	85 c1 ff f8 	l.lwz r14,0xfffffff8(r1)
    3898:	b9 8c 00 41 	l.srli r12,r12,0x1
    389c:	18 40 80 00 	l.movhi r2,0x8000
    38a0:	03 ff ff d6 	l.j 37f8 <__mulsf3+0xd0>
    38a4:	e1 8c 10 04 	l.or r12,r12,r2
    38a8:	bc 22 00 00 	l.sfnei r2,0x0
    38ac:	13 ff ff f1 	l.bf 3870 <__mulsf3+0x148>
    38b0:	9c 40 00 03 	l.addi r2,r0,0x3
    38b4:	bc 0c 00 00 	l.sfeqi r12,0x0
    38b8:	13 ff ff ee 	l.bf 3870 <__mulsf3+0x148>
    38bc:	15 00 00 00 	l.nop 0x0
    38c0:	9c 63 00 40 	l.addi r3,r3,0x40
    38c4:	9c 40 ff 80 	l.addi r2,r0,0xffffff80
    38c8:	03 ff ff e9 	l.j 386c <__mulsf3+0x144>
    38cc:	e0 63 10 03 	l.and r3,r3,r2
    38d0:	18 60 00 00 	l.movhi r3,0x0
    38d4:	bc 06 00 02 	l.sfeqi r6,0x2
    38d8:	13 ff ff e9 	l.bf 387c <__mulsf3+0x154>
    38dc:	a8 63 60 30 	l.ori r3,r3,0x6030
    38e0:	84 81 00 24 	l.lwz r4,0x24(r1)
    38e4:	a8 62 00 00 	l.ori r3,r2,0x0
    38e8:	84 41 00 14 	l.lwz r2,0x14(r1)
    38ec:	e0 44 10 05 	l.xor r2,r4,r2
    38f0:	e0 80 10 02 	l.sub r4,r0,r2
    38f4:	e0 44 10 04 	l.or r2,r4,r2
    38f8:	b8 42 00 5f 	l.srli r2,r2,0x1f
    38fc:	07 ff fe a9 	l.jal 33a0 <__pack_f>
    3900:	d4 01 10 24 	l.sw 0x24(r1),r2
    3904:	9c 21 00 44 	l.addi r1,r1,0x44
    3908:	85 21 ff fc 	l.lwz r9,0xfffffffc(r1)
    390c:	84 41 ff f4 	l.lwz r2,0xfffffff4(r1)
    3910:	44 00 48 00 	l.jr r9
    3914:	85 c1 ff f8 	l.lwz r14,0xfffffff8(r1)
    3918:	18 60 00 00 	l.movhi r3,0x0
    391c:	bc 05 00 02 	l.sfeqi r5,0x2
    3920:	13 ff ff d7 	l.bf 387c <__mulsf3+0x154>
    3924:	a8 63 60 30 	l.ori r3,r3,0x6030
    3928:	84 41 00 14 	l.lwz r2,0x14(r1)
    392c:	84 81 00 24 	l.lwz r4,0x24(r1)
    3930:	a8 6e 00 00 	l.ori r3,r14,0x0
    3934:	e0 44 10 05 	l.xor r2,r4,r2
    3938:	e0 80 10 02 	l.sub r4,r0,r2
    393c:	e0 44 10 04 	l.or r2,r4,r2
    3940:	b8 42 00 5f 	l.srli r2,r2,0x1f
    3944:	07 ff fe 97 	l.jal 33a0 <__pack_f>
    3948:	d4 01 10 14 	l.sw 0x14(r1),r2
    394c:	9c 21 00 44 	l.addi r1,r1,0x44
    3950:	85 21 ff fc 	l.lwz r9,0xfffffffc(r1)
    3954:	84 41 ff f4 	l.lwz r2,0xfffffff4(r1)
    3958:	44 00 48 00 	l.jr r9
    395c:	85 c1 ff f8 	l.lwz r14,0xfffffff8(r1)

00003960 <__divsf3>:
    3960:	d7 e1 4f fc 	l.sw 0xfffffffc(r1),r9
    3964:	d7 e1 17 f4 	l.sw 0xfffffff4(r1),r2
    3968:	d7 e1 77 f8 	l.sw 0xfffffff8(r1),r14
    396c:	9c 21 ff cc 	l.addi r1,r1,0xffffffcc
    3970:	9c 41 00 10 	l.addi r2,r1,0x10
    3974:	d4 01 18 24 	l.sw 0x24(r1),r3
    3978:	d4 01 20 20 	l.sw 0x20(r1),r4
    397c:	9c 61 00 24 	l.addi r3,r1,0x24
    3980:	07 ff fe f5 	l.jal 3554 <__unpack_f>
    3984:	a8 82 00 00 	l.ori r4,r2,0x0
    3988:	9c 61 00 20 	l.addi r3,r1,0x20
    398c:	07 ff fe f2 	l.jal 3554 <__unpack_f>
    3990:	a8 81 00 00 	l.ori r4,r1,0x0
    3994:	84 a1 00 10 	l.lwz r5,0x10(r1)
    3998:	bc a5 00 01 	l.sfleui r5,0x1
    399c:	10 00 00 2c 	l.bf 3a4c <__divsf3+0xec>
    39a0:	a8 62 00 00 	l.ori r3,r2,0x0
    39a4:	84 c1 00 00 	l.lwz r6,0x0(r1)
    39a8:	bc a6 00 01 	l.sfleui r6,0x1
    39ac:	10 00 00 28 	l.bf 3a4c <__divsf3+0xec>
    39b0:	a8 61 00 00 	l.ori r3,r1,0x0
    39b4:	84 81 00 14 	l.lwz r4,0x14(r1)
    39b8:	84 61 00 04 	l.lwz r3,0x4(r1)
    39bc:	bc 05 00 04 	l.sfeqi r5,0x4
    39c0:	e0 64 18 05 	l.xor r3,r4,r3
    39c4:	10 00 00 2d 	l.bf 3a78 <__divsf3+0x118>
    39c8:	d4 01 18 14 	l.sw 0x14(r1),r3
    39cc:	bc 25 00 02 	l.sfnei r5,0x2
    39d0:	0c 00 00 2a 	l.bnf 3a78 <__divsf3+0x118>
    39d4:	bc 26 00 04 	l.sfnei r6,0x4
    39d8:	0c 00 00 40 	l.bnf 3ad8 <__divsf3+0x178>
    39dc:	bc 26 00 02 	l.sfnei r6,0x2
    39e0:	0c 00 00 35 	l.bnf 3ab4 <__divsf3+0x154>
    39e4:	84 a1 00 18 	l.lwz r5,0x18(r1)
    39e8:	84 81 00 08 	l.lwz r4,0x8(r1)
    39ec:	84 61 00 1c 	l.lwz r3,0x1c(r1)
    39f0:	e0 85 20 02 	l.sub r4,r5,r4
    39f4:	84 e1 00 0c 	l.lwz r7,0xc(r1)
    39f8:	e4 63 38 00 	l.sfgeu r3,r7
    39fc:	0c 00 00 1b 	l.bnf 3a68 <__divsf3+0x108>
    3a00:	d4 01 20 18 	l.sw 0x18(r1),r4
    3a04:	9c a0 00 1f 	l.addi r5,r0,0x1f
    3a08:	18 c0 40 00 	l.movhi r6,0x4000
    3a0c:	9d 00 00 00 	l.addi r8,r0,0x0
    3a10:	e4 47 18 00 	l.sfgtu r7,r3
    3a14:	10 00 00 04 	l.bf 3a24 <__divsf3+0xc4>
    3a18:	9c a5 ff ff 	l.addi r5,r5,0xffffffff
    3a1c:	e1 08 30 04 	l.or r8,r8,r6
    3a20:	e0 63 38 02 	l.sub r3,r3,r7
    3a24:	b8 c6 00 41 	l.srli r6,r6,0x1
    3a28:	bc 25 00 00 	l.sfnei r5,0x0
    3a2c:	13 ff ff f9 	l.bf 3a10 <__divsf3+0xb0>
    3a30:	e0 63 18 00 	l.add r3,r3,r3
    3a34:	a4 88 00 7f 	l.andi r4,r8,0x7f
    3a38:	bc 24 00 40 	l.sfnei r4,0x40
    3a3c:	0c 00 00 15 	l.bnf 3a90 <__divsf3+0x130>
    3a40:	a4 88 00 80 	l.andi r4,r8,0x80
    3a44:	d4 01 40 1c 	l.sw 0x1c(r1),r8
    3a48:	a8 62 00 00 	l.ori r3,r2,0x0
    3a4c:	07 ff fe 55 	l.jal 33a0 <__pack_f>
    3a50:	15 00 00 00 	l.nop 0x0
    3a54:	9c 21 00 34 	l.addi r1,r1,0x34
    3a58:	85 21 ff fc 	l.lwz r9,0xfffffffc(r1)
    3a5c:	84 41 ff f4 	l.lwz r2,0xfffffff4(r1)
    3a60:	44 00 48 00 	l.jr r9
    3a64:	85 c1 ff f8 	l.lwz r14,0xfffffff8(r1)
    3a68:	9c 84 ff ff 	l.addi r4,r4,0xffffffff
    3a6c:	e0 63 18 00 	l.add r3,r3,r3
    3a70:	03 ff ff e5 	l.j 3a04 <__divsf3+0xa4>
    3a74:	d4 01 20 18 	l.sw 0x18(r1),r4
    3a78:	18 60 00 00 	l.movhi r3,0x0
    3a7c:	e4 05 30 00 	l.sfeq r5,r6
    3a80:	0f ff ff f2 	l.bnf 3a48 <__divsf3+0xe8>
    3a84:	a8 63 60 30 	l.ori r3,r3,0x6030
    3a88:	03 ff ff f1 	l.j 3a4c <__divsf3+0xec>
    3a8c:	15 00 00 00 	l.nop 0x0
    3a90:	bc 24 00 00 	l.sfnei r4,0x0
    3a94:	13 ff ff ec 	l.bf 3a44 <__divsf3+0xe4>
    3a98:	bc 03 00 00 	l.sfeqi r3,0x0
    3a9c:	13 ff ff ea 	l.bf 3a44 <__divsf3+0xe4>
    3aa0:	9c 60 ff 80 	l.addi r3,r0,0xffffff80
    3aa4:	9d 08 00 40 	l.addi r8,r8,0x40
    3aa8:	e1 08 18 03 	l.and r8,r8,r3
    3aac:	03 ff ff e7 	l.j 3a48 <__divsf3+0xe8>
    3ab0:	d4 01 40 1c 	l.sw 0x1c(r1),r8
    3ab4:	a8 62 00 00 	l.ori r3,r2,0x0
    3ab8:	9c 40 00 04 	l.addi r2,r0,0x4
    3abc:	07 ff fe 39 	l.jal 33a0 <__pack_f>
    3ac0:	d4 01 10 10 	l.sw 0x10(r1),r2
    3ac4:	9c 21 00 34 	l.addi r1,r1,0x34
    3ac8:	85 21 ff fc 	l.lwz r9,0xfffffffc(r1)
    3acc:	84 41 ff f4 	l.lwz r2,0xfffffff4(r1)
    3ad0:	44 00 48 00 	l.jr r9
    3ad4:	85 c1 ff f8 	l.lwz r14,0xfffffff8(r1)
    3ad8:	9c 60 00 00 	l.addi r3,r0,0x0
    3adc:	d4 01 18 1c 	l.sw 0x1c(r1),r3
    3ae0:	d4 01 18 18 	l.sw 0x18(r1),r3
    3ae4:	03 ff ff da 	l.j 3a4c <__divsf3+0xec>
    3ae8:	a8 62 00 00 	l.ori r3,r2,0x0

00003aec <__fpcmp_parts_f>:
    3aec:	84 a3 00 00 	l.lwz r5,0x0(r3)
    3af0:	9d 60 00 01 	l.addi r11,r0,0x1
    3af4:	e4 a5 58 00 	l.sfleu r5,r11
    3af8:	10 00 00 16 	l.bf 3b50 <__fpcmp_parts_f+0x64>
    3afc:	15 00 00 00 	l.nop 0x0
    3b00:	84 c4 00 00 	l.lwz r6,0x0(r4)
    3b04:	e4 a6 58 00 	l.sfleu r6,r11
    3b08:	10 00 00 12 	l.bf 3b50 <__fpcmp_parts_f+0x64>
    3b0c:	bc 25 00 04 	l.sfnei r5,0x4
    3b10:	0c 00 00 37 	l.bnf 3bec <__fpcmp_parts_f+0x100>
    3b14:	bc 26 00 04 	l.sfnei r6,0x4
    3b18:	0c 00 00 19 	l.bnf 3b7c <__fpcmp_parts_f+0x90>
    3b1c:	bc 25 00 02 	l.sfnei r5,0x2
    3b20:	0c 00 00 14 	l.bnf 3b70 <__fpcmp_parts_f+0x84>
    3b24:	bc 26 00 02 	l.sfnei r6,0x2
    3b28:	0c 00 00 0c 	l.bnf 3b58 <__fpcmp_parts_f+0x6c>
    3b2c:	15 00 00 00 	l.nop 0x0
    3b30:	84 a3 00 04 	l.lwz r5,0x4(r3)
    3b34:	84 c4 00 04 	l.lwz r6,0x4(r4)
    3b38:	e4 05 30 00 	l.sfeq r5,r6
    3b3c:	10 00 00 16 	l.bf 3b94 <__fpcmp_parts_f+0xa8>
    3b40:	15 00 00 00 	l.nop 0x0
    3b44:	bc 05 00 00 	l.sfeqi r5,0x0
    3b48:	0c 00 00 08 	l.bnf 3b68 <__fpcmp_parts_f+0x7c>
    3b4c:	15 00 00 00 	l.nop 0x0
    3b50:	44 00 48 00 	l.jr r9
    3b54:	15 00 00 00 	l.nop 0x0
    3b58:	84 63 00 04 	l.lwz r3,0x4(r3)
    3b5c:	bc 03 00 00 	l.sfeqi r3,0x0
    3b60:	13 ff ff fc 	l.bf 3b50 <__fpcmp_parts_f+0x64>
    3b64:	15 00 00 00 	l.nop 0x0
    3b68:	44 00 48 00 	l.jr r9
    3b6c:	9d 60 ff ff 	l.addi r11,r0,0xffffffff
    3b70:	bc 06 00 02 	l.sfeqi r6,0x2
    3b74:	13 ff ff f7 	l.bf 3b50 <__fpcmp_parts_f+0x64>
    3b78:	9d 60 00 00 	l.addi r11,r0,0x0
    3b7c:	84 64 00 04 	l.lwz r3,0x4(r4)
    3b80:	bc 03 00 00 	l.sfeqi r3,0x0
    3b84:	13 ff ff f3 	l.bf 3b50 <__fpcmp_parts_f+0x64>
    3b88:	9d 60 ff ff 	l.addi r11,r0,0xffffffff
    3b8c:	44 00 48 00 	l.jr r9
    3b90:	9d 60 00 01 	l.addi r11,r0,0x1
    3b94:	84 e3 00 08 	l.lwz r7,0x8(r3)
    3b98:	84 c4 00 08 	l.lwz r6,0x8(r4)
    3b9c:	e5 a7 30 00 	l.sfles r7,r6
    3ba0:	0f ff ff ea 	l.bnf 3b48 <__fpcmp_parts_f+0x5c>
    3ba4:	bc 05 00 00 	l.sfeqi r5,0x0
    3ba8:	e5 67 30 00 	l.sfges r7,r6
    3bac:	0c 00 00 0c 	l.bnf 3bdc <__fpcmp_parts_f+0xf0>
    3bb0:	bc 05 00 00 	l.sfeqi r5,0x0
    3bb4:	84 c3 00 0c 	l.lwz r6,0xc(r3)
    3bb8:	84 64 00 0c 	l.lwz r3,0xc(r4)
    3bbc:	e4 a6 18 00 	l.sfleu r6,r3
    3bc0:	10 00 00 04 	l.bf 3bd0 <__fpcmp_parts_f+0xe4>
    3bc4:	e4 66 18 00 	l.sfgeu r6,r3
    3bc8:	03 ff ff df 	l.j 3b44 <__fpcmp_parts_f+0x58>
    3bcc:	9d 60 00 01 	l.addi r11,r0,0x1
    3bd0:	13 ff ff e0 	l.bf 3b50 <__fpcmp_parts_f+0x64>
    3bd4:	9d 60 00 00 	l.addi r11,r0,0x0
    3bd8:	bc 05 00 00 	l.sfeqi r5,0x0
    3bdc:	0f ff ff ec 	l.bnf 3b8c <__fpcmp_parts_f+0xa0>
    3be0:	9d 60 ff ff 	l.addi r11,r0,0xffffffff
    3be4:	44 00 48 00 	l.jr r9
    3be8:	15 00 00 00 	l.nop 0x0
    3bec:	13 ff ff db 	l.bf 3b58 <__fpcmp_parts_f+0x6c>
    3bf0:	15 00 00 00 	l.nop 0x0
    3bf4:	85 64 00 04 	l.lwz r11,0x4(r4)
    3bf8:	84 63 00 04 	l.lwz r3,0x4(r3)
    3bfc:	44 00 48 00 	l.jr r9
    3c00:	e1 6b 18 02 	l.sub r11,r11,r3

00003c04 <__cmpsf2>:
    3c04:	d7 e1 4f fc 	l.sw 0xfffffffc(r1),r9
    3c08:	d7 e1 17 f4 	l.sw 0xfffffff4(r1),r2
    3c0c:	d7 e1 77 f8 	l.sw 0xfffffff8(r1),r14
    3c10:	9c 21 ff cc 	l.addi r1,r1,0xffffffcc
    3c14:	9d c1 00 10 	l.addi r14,r1,0x10
    3c18:	d4 01 18 24 	l.sw 0x24(r1),r3
    3c1c:	d4 01 20 20 	l.sw 0x20(r1),r4
    3c20:	9c 61 00 24 	l.addi r3,r1,0x24
    3c24:	07 ff fe 4c 	l.jal 3554 <__unpack_f>
    3c28:	a8 8e 00 00 	l.ori r4,r14,0x0
    3c2c:	9c 61 00 20 	l.addi r3,r1,0x20
    3c30:	07 ff fe 49 	l.jal 3554 <__unpack_f>
    3c34:	a8 81 00 00 	l.ori r4,r1,0x0
    3c38:	a8 6e 00 00 	l.ori r3,r14,0x0
    3c3c:	07 ff ff ac 	l.jal 3aec <__fpcmp_parts_f>
    3c40:	a8 81 00 00 	l.ori r4,r1,0x0
    3c44:	9c 21 00 34 	l.addi r1,r1,0x34
    3c48:	85 21 ff fc 	l.lwz r9,0xfffffffc(r1)
    3c4c:	84 41 ff f4 	l.lwz r2,0xfffffff4(r1)
    3c50:	44 00 48 00 	l.jr r9
    3c54:	85 c1 ff f8 	l.lwz r14,0xfffffff8(r1)

00003c58 <__eqsf2>:
    3c58:	d7 e1 4f fc 	l.sw 0xfffffffc(r1),r9
    3c5c:	d7 e1 77 f8 	l.sw 0xfffffff8(r1),r14
    3c60:	d7 e1 17 f4 	l.sw 0xfffffff4(r1),r2
    3c64:	9c 21 ff cc 	l.addi r1,r1,0xffffffcc
    3c68:	9d c1 00 10 	l.addi r14,r1,0x10
    3c6c:	d4 01 18 24 	l.sw 0x24(r1),r3
    3c70:	d4 01 20 20 	l.sw 0x20(r1),r4
    3c74:	9c 61 00 24 	l.addi r3,r1,0x24
    3c78:	07 ff fe 37 	l.jal 3554 <__unpack_f>
    3c7c:	a8 8e 00 00 	l.ori r4,r14,0x0
    3c80:	9c 61 00 20 	l.addi r3,r1,0x20
    3c84:	07 ff fe 34 	l.jal 3554 <__unpack_f>
    3c88:	a8 81 00 00 	l.ori r4,r1,0x0
    3c8c:	9d 60 00 01 	l.addi r11,r0,0x1
    3c90:	84 61 00 10 	l.lwz r3,0x10(r1)
    3c94:	e4 a3 58 00 	l.sfleu r3,r11
    3c98:	10 00 00 07 	l.bf 3cb4 <__eqsf2+0x5c>
    3c9c:	84 61 00 00 	l.lwz r3,0x0(r1)
    3ca0:	e4 a3 58 00 	l.sfleu r3,r11
    3ca4:	10 00 00 04 	l.bf 3cb4 <__eqsf2+0x5c>
    3ca8:	a8 6e 00 00 	l.ori r3,r14,0x0
    3cac:	07 ff ff 90 	l.jal 3aec <__fpcmp_parts_f>
    3cb0:	a8 81 00 00 	l.ori r4,r1,0x0
    3cb4:	9c 21 00 34 	l.addi r1,r1,0x34
    3cb8:	85 21 ff fc 	l.lwz r9,0xfffffffc(r1)
    3cbc:	84 41 ff f4 	l.lwz r2,0xfffffff4(r1)
    3cc0:	44 00 48 00 	l.jr r9
    3cc4:	85 c1 ff f8 	l.lwz r14,0xfffffff8(r1)

00003cc8 <__nesf2>:
    3cc8:	d7 e1 4f fc 	l.sw 0xfffffffc(r1),r9
    3ccc:	d7 e1 77 f8 	l.sw 0xfffffff8(r1),r14
    3cd0:	d7 e1 17 f4 	l.sw 0xfffffff4(r1),r2
    3cd4:	9c 21 ff cc 	l.addi r1,r1,0xffffffcc
    3cd8:	9d c1 00 10 	l.addi r14,r1,0x10
    3cdc:	d4 01 18 24 	l.sw 0x24(r1),r3
    3ce0:	d4 01 20 20 	l.sw 0x20(r1),r4
    3ce4:	9c 61 00 24 	l.addi r3,r1,0x24
    3ce8:	07 ff fe 1b 	l.jal 3554 <__unpack_f>
    3cec:	a8 8e 00 00 	l.ori r4,r14,0x0
    3cf0:	9c 61 00 20 	l.addi r3,r1,0x20
    3cf4:	07 ff fe 18 	l.jal 3554 <__unpack_f>
    3cf8:	a8 81 00 00 	l.ori r4,r1,0x0
    3cfc:	9d 60 00 01 	l.addi r11,r0,0x1
    3d00:	84 61 00 10 	l.lwz r3,0x10(r1)
    3d04:	e4 a3 58 00 	l.sfleu r3,r11
    3d08:	10 00 00 07 	l.bf 3d24 <__nesf2+0x5c>
    3d0c:	84 61 00 00 	l.lwz r3,0x0(r1)
    3d10:	e4 a3 58 00 	l.sfleu r3,r11
    3d14:	10 00 00 04 	l.bf 3d24 <__nesf2+0x5c>
    3d18:	a8 6e 00 00 	l.ori r3,r14,0x0
    3d1c:	07 ff ff 74 	l.jal 3aec <__fpcmp_parts_f>
    3d20:	a8 81 00 00 	l.ori r4,r1,0x0
    3d24:	9c 21 00 34 	l.addi r1,r1,0x34
    3d28:	85 21 ff fc 	l.lwz r9,0xfffffffc(r1)
    3d2c:	84 41 ff f4 	l.lwz r2,0xfffffff4(r1)
    3d30:	44 00 48 00 	l.jr r9
    3d34:	85 c1 ff f8 	l.lwz r14,0xfffffff8(r1)

00003d38 <__gtsf2>:
    3d38:	d7 e1 4f fc 	l.sw 0xfffffffc(r1),r9
    3d3c:	d7 e1 77 f8 	l.sw 0xfffffff8(r1),r14
    3d40:	d7 e1 17 f4 	l.sw 0xfffffff4(r1),r2
    3d44:	9c 21 ff cc 	l.addi r1,r1,0xffffffcc
    3d48:	9d c1 00 10 	l.addi r14,r1,0x10
    3d4c:	d4 01 18 24 	l.sw 0x24(r1),r3
    3d50:	d4 01 20 20 	l.sw 0x20(r1),r4
    3d54:	9c 61 00 24 	l.addi r3,r1,0x24
    3d58:	07 ff fd ff 	l.jal 3554 <__unpack_f>
    3d5c:	a8 8e 00 00 	l.ori r4,r14,0x0
    3d60:	9c 61 00 20 	l.addi r3,r1,0x20
    3d64:	07 ff fd fc 	l.jal 3554 <__unpack_f>
    3d68:	a8 81 00 00 	l.ori r4,r1,0x0
    3d6c:	84 61 00 10 	l.lwz r3,0x10(r1)
    3d70:	bc a3 00 01 	l.sfleui r3,0x1
    3d74:	10 00 00 08 	l.bf 3d94 <__gtsf2+0x5c>
    3d78:	9d 60 ff ff 	l.addi r11,r0,0xffffffff
    3d7c:	84 61 00 00 	l.lwz r3,0x0(r1)
    3d80:	bc a3 00 01 	l.sfleui r3,0x1
    3d84:	10 00 00 04 	l.bf 3d94 <__gtsf2+0x5c>
    3d88:	a8 6e 00 00 	l.ori r3,r14,0x0
    3d8c:	07 ff ff 58 	l.jal 3aec <__fpcmp_parts_f>
    3d90:	a8 81 00 00 	l.ori r4,r1,0x0
    3d94:	9c 21 00 34 	l.addi r1,r1,0x34
    3d98:	85 21 ff fc 	l.lwz r9,0xfffffffc(r1)
    3d9c:	84 41 ff f4 	l.lwz r2,0xfffffff4(r1)
    3da0:	44 00 48 00 	l.jr r9
    3da4:	85 c1 ff f8 	l.lwz r14,0xfffffff8(r1)

00003da8 <__gesf2>:
    3da8:	d7 e1 4f fc 	l.sw 0xfffffffc(r1),r9
    3dac:	d7 e1 77 f8 	l.sw 0xfffffff8(r1),r14
    3db0:	d7 e1 17 f4 	l.sw 0xfffffff4(r1),r2
    3db4:	9c 21 ff cc 	l.addi r1,r1,0xffffffcc
    3db8:	9d c1 00 10 	l.addi r14,r1,0x10
    3dbc:	d4 01 18 24 	l.sw 0x24(r1),r3
    3dc0:	d4 01 20 20 	l.sw 0x20(r1),r4
    3dc4:	9c 61 00 24 	l.addi r3,r1,0x24
    3dc8:	07 ff fd e3 	l.jal 3554 <__unpack_f>
    3dcc:	a8 8e 00 00 	l.ori r4,r14,0x0
    3dd0:	9c 61 00 20 	l.addi r3,r1,0x20
    3dd4:	07 ff fd e0 	l.jal 3554 <__unpack_f>
    3dd8:	a8 81 00 00 	l.ori r4,r1,0x0
    3ddc:	84 61 00 10 	l.lwz r3,0x10(r1)
    3de0:	bc a3 00 01 	l.sfleui r3,0x1
    3de4:	10 00 00 08 	l.bf 3e04 <__gesf2+0x5c>
    3de8:	9d 60 ff ff 	l.addi r11,r0,0xffffffff
    3dec:	84 61 00 00 	l.lwz r3,0x0(r1)
    3df0:	bc a3 00 01 	l.sfleui r3,0x1
    3df4:	10 00 00 04 	l.bf 3e04 <__gesf2+0x5c>
    3df8:	a8 6e 00 00 	l.ori r3,r14,0x0
    3dfc:	07 ff ff 3c 	l.jal 3aec <__fpcmp_parts_f>
    3e00:	a8 81 00 00 	l.ori r4,r1,0x0
    3e04:	9c 21 00 34 	l.addi r1,r1,0x34
    3e08:	85 21 ff fc 	l.lwz r9,0xfffffffc(r1)
    3e0c:	84 41 ff f4 	l.lwz r2,0xfffffff4(r1)
    3e10:	44 00 48 00 	l.jr r9
    3e14:	85 c1 ff f8 	l.lwz r14,0xfffffff8(r1)

00003e18 <__ltsf2>:
    3e18:	d7 e1 4f fc 	l.sw 0xfffffffc(r1),r9
    3e1c:	d7 e1 77 f8 	l.sw 0xfffffff8(r1),r14
    3e20:	d7 e1 17 f4 	l.sw 0xfffffff4(r1),r2
    3e24:	9c 21 ff cc 	l.addi r1,r1,0xffffffcc
    3e28:	9d c1 00 10 	l.addi r14,r1,0x10
    3e2c:	d4 01 18 24 	l.sw 0x24(r1),r3
    3e30:	d4 01 20 20 	l.sw 0x20(r1),r4
    3e34:	9c 61 00 24 	l.addi r3,r1,0x24
    3e38:	07 ff fd c7 	l.jal 3554 <__unpack_f>
    3e3c:	a8 8e 00 00 	l.ori r4,r14,0x0
    3e40:	9c 61 00 20 	l.addi r3,r1,0x20
    3e44:	07 ff fd c4 	l.jal 3554 <__unpack_f>
    3e48:	a8 81 00 00 	l.ori r4,r1,0x0
    3e4c:	9d 60 00 01 	l.addi r11,r0,0x1
    3e50:	84 61 00 10 	l.lwz r3,0x10(r1)
    3e54:	e4 a3 58 00 	l.sfleu r3,r11
    3e58:	10 00 00 07 	l.bf 3e74 <__ltsf2+0x5c>
    3e5c:	84 61 00 00 	l.lwz r3,0x0(r1)
    3e60:	e4 a3 58 00 	l.sfleu r3,r11
    3e64:	10 00 00 04 	l.bf 3e74 <__ltsf2+0x5c>
    3e68:	a8 6e 00 00 	l.ori r3,r14,0x0
    3e6c:	07 ff ff 20 	l.jal 3aec <__fpcmp_parts_f>
    3e70:	a8 81 00 00 	l.ori r4,r1,0x0
    3e74:	9c 21 00 34 	l.addi r1,r1,0x34
    3e78:	85 21 ff fc 	l.lwz r9,0xfffffffc(r1)
    3e7c:	84 41 ff f4 	l.lwz r2,0xfffffff4(r1)
    3e80:	44 00 48 00 	l.jr r9
    3e84:	85 c1 ff f8 	l.lwz r14,0xfffffff8(r1)

00003e88 <__lesf2>:
    3e88:	d7 e1 4f fc 	l.sw 0xfffffffc(r1),r9
    3e8c:	d7 e1 77 f8 	l.sw 0xfffffff8(r1),r14
    3e90:	d7 e1 17 f4 	l.sw 0xfffffff4(r1),r2
    3e94:	9c 21 ff cc 	l.addi r1,r1,0xffffffcc
    3e98:	9d c1 00 10 	l.addi r14,r1,0x10
    3e9c:	d4 01 18 24 	l.sw 0x24(r1),r3
    3ea0:	d4 01 20 20 	l.sw 0x20(r1),r4
    3ea4:	9c 61 00 24 	l.addi r3,r1,0x24
    3ea8:	07 ff fd ab 	l.jal 3554 <__unpack_f>
    3eac:	a8 8e 00 00 	l.ori r4,r14,0x0
    3eb0:	9c 61 00 20 	l.addi r3,r1,0x20
    3eb4:	07 ff fd a8 	l.jal 3554 <__unpack_f>
    3eb8:	a8 81 00 00 	l.ori r4,r1,0x0
    3ebc:	9d 60 00 01 	l.addi r11,r0,0x1
    3ec0:	84 61 00 10 	l.lwz r3,0x10(r1)
    3ec4:	e4 a3 58 00 	l.sfleu r3,r11
    3ec8:	10 00 00 07 	l.bf 3ee4 <__lesf2+0x5c>
    3ecc:	84 61 00 00 	l.lwz r3,0x0(r1)
    3ed0:	e4 a3 58 00 	l.sfleu r3,r11
    3ed4:	10 00 00 04 	l.bf 3ee4 <__lesf2+0x5c>
    3ed8:	a8 6e 00 00 	l.ori r3,r14,0x0
    3edc:	07 ff ff 04 	l.jal 3aec <__fpcmp_parts_f>
    3ee0:	a8 81 00 00 	l.ori r4,r1,0x0
    3ee4:	9c 21 00 34 	l.addi r1,r1,0x34
    3ee8:	85 21 ff fc 	l.lwz r9,0xfffffffc(r1)
    3eec:	84 41 ff f4 	l.lwz r2,0xfffffff4(r1)
    3ef0:	44 00 48 00 	l.jr r9
    3ef4:	85 c1 ff f8 	l.lwz r14,0xfffffff8(r1)

00003ef8 <__unordsf2>:
    3ef8:	d7 e1 4f fc 	l.sw 0xfffffffc(r1),r9
    3efc:	9c 21 ff d4 	l.addi r1,r1,0xffffffd4
    3f00:	d4 01 18 24 	l.sw 0x24(r1),r3
    3f04:	d4 01 20 20 	l.sw 0x20(r1),r4
    3f08:	9c 61 00 24 	l.addi r3,r1,0x24
    3f0c:	07 ff fd 92 	l.jal 3554 <__unpack_f>
    3f10:	9c 81 00 10 	l.addi r4,r1,0x10
    3f14:	9c 61 00 20 	l.addi r3,r1,0x20
    3f18:	07 ff fd 8f 	l.jal 3554 <__unpack_f>
    3f1c:	a8 81 00 00 	l.ori r4,r1,0x0
    3f20:	9d 60 00 01 	l.addi r11,r0,0x1
    3f24:	84 61 00 10 	l.lwz r3,0x10(r1)
    3f28:	e4 a3 58 00 	l.sfleu r3,r11
    3f2c:	10 00 00 05 	l.bf 3f40 <__unordsf2+0x48>
    3f30:	84 61 00 00 	l.lwz r3,0x0(r1)
    3f34:	e4 a3 58 00 	l.sfleu r3,r11
    3f38:	0c 00 00 06 	l.bnf 3f50 <__unordsf2+0x58>
    3f3c:	15 00 00 00 	l.nop 0x0
    3f40:	9c 21 00 2c 	l.addi r1,r1,0x2c
    3f44:	85 21 ff fc 	l.lwz r9,0xfffffffc(r1)
    3f48:	44 00 48 00 	l.jr r9
    3f4c:	15 00 00 00 	l.nop 0x0
    3f50:	9c 21 00 2c 	l.addi r1,r1,0x2c
    3f54:	85 21 ff fc 	l.lwz r9,0xfffffffc(r1)
    3f58:	44 00 48 00 	l.jr r9
    3f5c:	9d 60 00 00 	l.addi r11,r0,0x0

00003f60 <__floatsisf>:
    3f60:	b8 83 00 5f 	l.srli r4,r3,0x1f
    3f64:	d7 e1 17 f8 	l.sw 0xfffffff8(r1),r2
    3f68:	d7 e1 4f fc 	l.sw 0xfffffffc(r1),r9
    3f6c:	9c 40 00 03 	l.addi r2,r0,0x3
    3f70:	9c 21 ff e8 	l.addi r1,r1,0xffffffe8
    3f74:	bc 23 00 00 	l.sfnei r3,0x0
    3f78:	d4 01 10 00 	l.sw 0x0(r1),r2
    3f7c:	10 00 00 0a 	l.bf 3fa4 <__floatsisf+0x44>
    3f80:	d4 01 20 04 	l.sw 0x4(r1),r4
    3f84:	9c 40 00 02 	l.addi r2,r0,0x2
    3f88:	d4 01 10 00 	l.sw 0x0(r1),r2
    3f8c:	07 ff fd 05 	l.jal 33a0 <__pack_f>
    3f90:	a8 61 00 00 	l.ori r3,r1,0x0
    3f94:	9c 21 00 18 	l.addi r1,r1,0x18
    3f98:	85 21 ff fc 	l.lwz r9,0xfffffffc(r1)
    3f9c:	44 00 48 00 	l.jr r9
    3fa0:	84 41 ff f8 	l.lwz r2,0xfffffff8(r1)
    3fa4:	a8 43 00 00 	l.ori r2,r3,0x0
    3fa8:	9c 60 00 1e 	l.addi r3,r0,0x1e
    3fac:	bc 04 00 00 	l.sfeqi r4,0x0
    3fb0:	10 00 00 07 	l.bf 3fcc <__floatsisf+0x6c>
    3fb4:	d4 01 18 08 	l.sw 0x8(r1),r3
    3fb8:	18 60 80 00 	l.movhi r3,0x8000
    3fbc:	e4 02 18 00 	l.sfeq r2,r3
    3fc0:	10 00 00 0f 	l.bf 3ffc <__floatsisf+0x9c>
    3fc4:	15 00 00 00 	l.nop 0x0
    3fc8:	e0 40 10 02 	l.sub r2,r0,r2
    3fcc:	a8 62 00 00 	l.ori r3,r2,0x0
    3fd0:	04 00 07 97 	l.jal 5e2c <__clzsi2>
    3fd4:	d4 01 10 0c 	l.sw 0xc(r1),r2
    3fd8:	9d 6b ff ff 	l.addi r11,r11,0xffffffff
    3fdc:	bd ab 00 00 	l.sflesi r11,0x0
    3fe0:	13 ff ff eb 	l.bf 3f8c <__floatsisf+0x2c>
    3fe4:	9c 60 00 1e 	l.addi r3,r0,0x1e
    3fe8:	e0 42 58 08 	l.sll r2,r2,r11
    3fec:	e1 63 58 02 	l.sub r11,r3,r11
    3ff0:	d4 01 10 0c 	l.sw 0xc(r1),r2
    3ff4:	03 ff ff e6 	l.j 3f8c <__floatsisf+0x2c>
    3ff8:	d4 01 58 08 	l.sw 0x8(r1),r11
    3ffc:	18 40 00 00 	l.movhi r2,0x0
    4000:	a8 42 62 d0 	l.ori r2,r2,0x62d0
    4004:	03 ff ff e4 	l.j 3f94 <__floatsisf+0x34>
    4008:	85 62 00 00 	l.lwz r11,0x0(r2)

0000400c <__floatunsisf>:
    400c:	d7 e1 17 f4 	l.sw 0xfffffff4(r1),r2
    4010:	9c 80 00 00 	l.addi r4,r0,0x0
    4014:	d7 e1 4f fc 	l.sw 0xfffffffc(r1),r9
    4018:	d7 e1 77 f8 	l.sw 0xfffffff8(r1),r14
    401c:	9c 21 ff e4 	l.addi r1,r1,0xffffffe4
    4020:	a8 43 00 00 	l.ori r2,r3,0x0
    4024:	e4 23 20 00 	l.sfne r3,r4
    4028:	0c 00 00 18 	l.bnf 4088 <__floatunsisf+0x7c>
    402c:	d4 01 20 04 	l.sw 0x4(r1),r4
    4030:	9c 80 00 03 	l.addi r4,r0,0x3
    4034:	9d c0 00 1e 	l.addi r14,r0,0x1e
    4038:	d4 01 20 00 	l.sw 0x0(r1),r4
    403c:	d4 01 70 08 	l.sw 0x8(r1),r14
    4040:	04 00 07 7b 	l.jal 5e2c <__clzsi2>
    4044:	d4 01 18 0c 	l.sw 0xc(r1),r3
    4048:	9d 6b ff ff 	l.addi r11,r11,0xffffffff
    404c:	bd 6b 00 00 	l.sfgesi r11,0x0
    4050:	0c 00 00 17 	l.bnf 40ac <__floatunsisf+0xa0>
    4054:	bc 0b 00 00 	l.sfeqi r11,0x0
    4058:	10 00 00 05 	l.bf 406c <__floatunsisf+0x60>
    405c:	e0 42 58 08 	l.sll r2,r2,r11
    4060:	e1 6e 58 02 	l.sub r11,r14,r11
    4064:	d4 01 10 0c 	l.sw 0xc(r1),r2
    4068:	d4 01 58 08 	l.sw 0x8(r1),r11
    406c:	07 ff fc cd 	l.jal 33a0 <__pack_f>
    4070:	a8 61 00 00 	l.ori r3,r1,0x0
    4074:	9c 21 00 1c 	l.addi r1,r1,0x1c
    4078:	85 21 ff fc 	l.lwz r9,0xfffffffc(r1)
    407c:	84 41 ff f4 	l.lwz r2,0xfffffff4(r1)
    4080:	44 00 48 00 	l.jr r9
    4084:	85 c1 ff f8 	l.lwz r14,0xfffffff8(r1)
    4088:	9c 40 00 02 	l.addi r2,r0,0x2
    408c:	a8 61 00 00 	l.ori r3,r1,0x0
    4090:	07 ff fc c4 	l.jal 33a0 <__pack_f>
    4094:	d4 01 10 00 	l.sw 0x0(r1),r2
    4098:	9c 21 00 1c 	l.addi r1,r1,0x1c
    409c:	85 21 ff fc 	l.lwz r9,0xfffffffc(r1)
    40a0:	84 41 ff f4 	l.lwz r2,0xfffffff4(r1)
    40a4:	44 00 48 00 	l.jr r9
    40a8:	85 c1 ff f8 	l.lwz r14,0xfffffff8(r1)
    40ac:	e0 60 58 02 	l.sub r3,r0,r11
    40b0:	9c a0 00 01 	l.addi r5,r0,0x1
    40b4:	e0 82 18 48 	l.srl r4,r2,r3
    40b8:	e0 65 18 08 	l.sll r3,r5,r3
    40bc:	e1 6e 58 02 	l.sub r11,r14,r11
    40c0:	9c 63 ff ff 	l.addi r3,r3,0xffffffff
    40c4:	d4 01 58 08 	l.sw 0x8(r1),r11
    40c8:	e0 43 10 03 	l.and r2,r3,r2
    40cc:	e0 60 10 02 	l.sub r3,r0,r2
    40d0:	e0 43 10 04 	l.or r2,r3,r2
    40d4:	a8 61 00 00 	l.ori r3,r1,0x0
    40d8:	b8 42 00 5f 	l.srli r2,r2,0x1f
    40dc:	e0 42 20 04 	l.or r2,r2,r4
    40e0:	07 ff fc b0 	l.jal 33a0 <__pack_f>
    40e4:	d4 01 10 0c 	l.sw 0xc(r1),r2
    40e8:	9c 21 00 1c 	l.addi r1,r1,0x1c
    40ec:	85 21 ff fc 	l.lwz r9,0xfffffffc(r1)
    40f0:	84 41 ff f4 	l.lwz r2,0xfffffff4(r1)
    40f4:	44 00 48 00 	l.jr r9
    40f8:	85 c1 ff f8 	l.lwz r14,0xfffffff8(r1)

000040fc <__fixsfsi>:
    40fc:	d7 e1 4f fc 	l.sw 0xfffffffc(r1),r9
    4100:	9c 21 ff e8 	l.addi r1,r1,0xffffffe8
    4104:	d4 01 18 10 	l.sw 0x10(r1),r3
    4108:	a8 81 00 00 	l.ori r4,r1,0x0
    410c:	07 ff fd 12 	l.jal 3554 <__unpack_f>
    4110:	9c 61 00 10 	l.addi r3,r1,0x10
    4114:	84 61 00 00 	l.lwz r3,0x0(r1)
    4118:	bc 03 00 02 	l.sfeqi r3,0x2
    411c:	10 00 00 12 	l.bf 4164 <__fixsfsi+0x68>
    4120:	9d 60 00 00 	l.addi r11,r0,0x0
    4124:	bc a3 00 01 	l.sfleui r3,0x1
    4128:	10 00 00 0f 	l.bf 4164 <__fixsfsi+0x68>
    412c:	bc 23 00 04 	l.sfnei r3,0x4
    4130:	0c 00 00 1d 	l.bnf 41a4 <__fixsfsi+0xa8>
    4134:	84 61 00 08 	l.lwz r3,0x8(r1)
    4138:	bd 83 00 00 	l.sfltsi r3,0x0
    413c:	10 00 00 0a 	l.bf 4164 <__fixsfsi+0x68>
    4140:	bd a3 00 1e 	l.sflesi r3,0x1e
    4144:	10 00 00 0c 	l.bf 4174 <__fixsfsi+0x78>
    4148:	15 00 00 00 	l.nop 0x0
    414c:	84 61 00 04 	l.lwz r3,0x4(r1)
    4150:	bc 03 00 00 	l.sfeqi r3,0x0
    4154:	0c 00 00 18 	l.bnf 41b4 <__fixsfsi+0xb8>
    4158:	15 00 00 00 	l.nop 0x0
    415c:	19 60 7f ff 	l.movhi r11,0x7fff
    4160:	a9 6b ff ff 	l.ori r11,r11,0xffff
    4164:	9c 21 00 18 	l.addi r1,r1,0x18
    4168:	85 21 ff fc 	l.lwz r9,0xfffffffc(r1)
    416c:	44 00 48 00 	l.jr r9
    4170:	15 00 00 00 	l.nop 0x0
    4174:	9d 60 00 1e 	l.addi r11,r0,0x1e
    4178:	e0 6b 18 02 	l.sub r3,r11,r3
    417c:	85 61 00 0c 	l.lwz r11,0xc(r1)
    4180:	e1 6b 18 48 	l.srl r11,r11,r3
    4184:	84 61 00 04 	l.lwz r3,0x4(r1)
    4188:	bc 03 00 00 	l.sfeqi r3,0x0
    418c:	13 ff ff f6 	l.bf 4164 <__fixsfsi+0x68>
    4190:	15 00 00 00 	l.nop 0x0
    4194:	9c 21 00 18 	l.addi r1,r1,0x18
    4198:	85 21 ff fc 	l.lwz r9,0xfffffffc(r1)
    419c:	44 00 48 00 	l.jr r9
    41a0:	e1 60 58 02 	l.sub r11,r0,r11
    41a4:	84 61 00 04 	l.lwz r3,0x4(r1)
    41a8:	e4 03 58 00 	l.sfeq r3,r11
    41ac:	13 ff ff ec 	l.bf 415c <__fixsfsi+0x60>
    41b0:	15 00 00 00 	l.nop 0x0
    41b4:	9c 21 00 18 	l.addi r1,r1,0x18
    41b8:	85 21 ff fc 	l.lwz r9,0xfffffffc(r1)
    41bc:	44 00 48 00 	l.jr r9
    41c0:	19 60 80 00 	l.movhi r11,0x8000

000041c4 <__negsf2>:
    41c4:	d7 e1 4f fc 	l.sw 0xfffffffc(r1),r9
    41c8:	d7 e1 17 f8 	l.sw 0xfffffff8(r1),r2
    41cc:	9c 21 ff e4 	l.addi r1,r1,0xffffffe4
    41d0:	d4 01 18 10 	l.sw 0x10(r1),r3
    41d4:	a8 81 00 00 	l.ori r4,r1,0x0
    41d8:	07 ff fc df 	l.jal 3554 <__unpack_f>
    41dc:	9c 61 00 10 	l.addi r3,r1,0x10
    41e0:	84 81 00 04 	l.lwz r4,0x4(r1)
    41e4:	a8 61 00 00 	l.ori r3,r1,0x0
    41e8:	e0 40 20 02 	l.sub r2,r0,r4
    41ec:	e0 42 20 04 	l.or r2,r2,r4
    41f0:	ac 42 ff ff 	l.xori r2,r2,0xffffffff
    41f4:	b8 42 00 5f 	l.srli r2,r2,0x1f
    41f8:	07 ff fc 6a 	l.jal 33a0 <__pack_f>
    41fc:	d4 01 10 04 	l.sw 0x4(r1),r2
    4200:	9c 21 00 1c 	l.addi r1,r1,0x1c
    4204:	85 21 ff fc 	l.lwz r9,0xfffffffc(r1)
    4208:	44 00 48 00 	l.jr r9
    420c:	84 41 ff f8 	l.lwz r2,0xfffffff8(r1)

00004210 <__make_fp>:
    4210:	d7 e1 4f fc 	l.sw 0xfffffffc(r1),r9
    4214:	9c 21 ff ec 	l.addi r1,r1,0xffffffec
    4218:	d4 01 18 00 	l.sw 0x0(r1),r3
    421c:	a8 61 00 00 	l.ori r3,r1,0x0
    4220:	d4 01 20 04 	l.sw 0x4(r1),r4
    4224:	d4 01 28 08 	l.sw 0x8(r1),r5
    4228:	07 ff fc 5e 	l.jal 33a0 <__pack_f>
    422c:	d4 01 30 0c 	l.sw 0xc(r1),r6
    4230:	9c 21 00 14 	l.addi r1,r1,0x14
    4234:	85 21 ff fc 	l.lwz r9,0xfffffffc(r1)
    4238:	44 00 48 00 	l.jr r9
    423c:	15 00 00 00 	l.nop 0x0

00004240 <__extendsfdf2>:
    4240:	d7 e1 4f fc 	l.sw 0xfffffffc(r1),r9
    4244:	d7 e1 17 f8 	l.sw 0xfffffff8(r1),r2
    4248:	9c 21 ff e4 	l.addi r1,r1,0xffffffe4
    424c:	d4 01 18 10 	l.sw 0x10(r1),r3
    4250:	a8 81 00 00 	l.ori r4,r1,0x0
    4254:	07 ff fc c0 	l.jal 3554 <__unpack_f>
    4258:	9c 61 00 10 	l.addi r3,r1,0x10
    425c:	84 e1 00 0c 	l.lwz r7,0xc(r1)
    4260:	84 61 00 00 	l.lwz r3,0x0(r1)
    4264:	b8 c7 00 42 	l.srli r6,r7,0x2
    4268:	b8 e7 00 1e 	l.slli r7,r7,0x1e
    426c:	84 81 00 04 	l.lwz r4,0x4(r1)
    4270:	04 00 06 36 	l.jal 5b48 <__make_dp>
    4274:	84 a1 00 08 	l.lwz r5,0x8(r1)
    4278:	9c 21 00 1c 	l.addi r1,r1,0x1c
    427c:	a8 4b 00 00 	l.ori r2,r11,0x0
    4280:	a8 6c 00 00 	l.ori r3,r12,0x0
    4284:	85 21 ff fc 	l.lwz r9,0xfffffffc(r1)
    4288:	e1 62 00 04 	l.or r11,r2,r0
    428c:	e1 83 00 04 	l.or r12,r3,r0
    4290:	44 00 48 00 	l.jr r9
    4294:	84 41 ff f8 	l.lwz r2,0xfffffff8(r1)

00004298 <_fpadd_parts>:
    4298:	d7 e1 17 f8 	l.sw 0xfffffff8(r1),r2
    429c:	d7 e1 77 fc 	l.sw 0xfffffffc(r1),r14
    42a0:	84 43 00 00 	l.lwz r2,0x0(r3)
    42a4:	9c 21 ff f8 	l.addi r1,r1,0xfffffff8
    42a8:	bc a2 00 01 	l.sfleui r2,0x1
    42ac:	10 00 00 8c 	l.bf 44dc <_fpadd_parts+0x244>
    42b0:	a9 63 00 00 	l.ori r11,r3,0x0
    42b4:	84 64 00 00 	l.lwz r3,0x0(r4)
    42b8:	bc a3 00 01 	l.sfleui r3,0x1
    42bc:	10 00 00 cf 	l.bf 45f8 <_fpadd_parts+0x360>
    42c0:	bc 22 00 04 	l.sfnei r2,0x4
    42c4:	0c 00 01 09 	l.bnf 46e8 <_fpadd_parts+0x450>
    42c8:	bc 03 00 04 	l.sfeqi r3,0x4
    42cc:	10 00 00 cb 	l.bf 45f8 <_fpadd_parts+0x360>
    42d0:	bc 23 00 02 	l.sfnei r3,0x2
    42d4:	0c 00 00 9a 	l.bnf 453c <_fpadd_parts+0x2a4>
    42d8:	bc 02 00 02 	l.sfeqi r2,0x2
    42dc:	10 00 00 c7 	l.bf 45f8 <_fpadd_parts+0x360>
    42e0:	15 00 00 00 	l.nop 0x0
    42e4:	85 8b 00 08 	l.lwz r12,0x8(r11)
    42e8:	85 e4 00 08 	l.lwz r15,0x8(r4)
    42ec:	84 cb 00 0c 	l.lwz r6,0xc(r11)
    42f0:	84 eb 00 10 	l.lwz r7,0x10(r11)
    42f4:	e1 ac 78 02 	l.sub r13,r12,r15
    42f8:	84 44 00 0c 	l.lwz r2,0xc(r4)
    42fc:	84 64 00 10 	l.lwz r3,0x10(r4)
    4300:	ba 2d 00 9f 	l.srai r17,r13,0x1f
    4304:	e1 11 68 05 	l.xor r8,r17,r13
    4308:	e1 08 88 02 	l.sub r8,r8,r17
    430c:	bd 48 00 3f 	l.sfgtsi r8,0x3f
    4310:	10 00 00 77 	l.bf 44ec <_fpadd_parts+0x254>
    4314:	e5 ac 78 00 	l.sfles r12,r15
    4318:	bd ad 00 00 	l.sflesi r13,0x0
    431c:	10 00 00 bc 	l.bf 460c <_fpadd_parts+0x374>
    4320:	bc 0d 00 00 	l.sfeqi r13,0x0
    4324:	9d a8 ff e0 	l.addi r13,r8,0xffffffe0
    4328:	bd 8d 00 00 	l.sfltsi r13,0x0
    432c:	10 00 00 d4 	l.bf 467c <_fpadd_parts+0x3e4>
    4330:	a9 c2 00 00 	l.ori r14,r2,0x0
    4334:	9e a0 00 00 	l.addi r21,r0,0x0
    4338:	e1 ee 68 48 	l.srl r15,r14,r13
    433c:	bd 8d 00 00 	l.sfltsi r13,0x0
    4340:	10 00 00 dc 	l.bf 46b0 <_fpadd_parts+0x418>
    4344:	9e 20 00 01 	l.addi r17,r0,0x1
    4348:	9d 00 00 00 	l.addi r8,r0,0x0
    434c:	e1 b1 68 08 	l.sll r13,r17,r13
    4350:	9e 28 ff ff 	l.addi r17,r8,0xffffffff
    4354:	e4 91 40 00 	l.sfltu r17,r8
    4358:	10 00 00 03 	l.bf 4364 <_fpadd_parts+0xcc>
    435c:	9e 60 00 01 	l.addi r19,r0,0x1
    4360:	9e 60 00 00 	l.addi r19,r0,0x0
    4364:	9d 0d ff ff 	l.addi r8,r13,0xffffffff
    4368:	e2 31 18 03 	l.and r17,r17,r3
    436c:	e1 13 40 00 	l.add r8,r19,r8
    4370:	e1 08 10 03 	l.and r8,r8,r2
    4374:	a8 55 00 00 	l.ori r2,r21,0x0
    4378:	e1 08 88 04 	l.or r8,r8,r17
    437c:	e1 a0 40 02 	l.sub r13,r0,r8
    4380:	e1 0d 40 04 	l.or r8,r13,r8
    4384:	b9 08 00 5f 	l.srli r8,r8,0x1f
    4388:	e1 e8 78 04 	l.or r15,r8,r15
    438c:	a8 6f 00 00 	l.ori r3,r15,0x0
    4390:	85 0b 00 04 	l.lwz r8,0x4(r11)
    4394:	84 84 00 04 	l.lwz r4,0x4(r4)
    4398:	e4 08 20 00 	l.sfeq r8,r4
    439c:	10 00 00 5d 	l.bf 4510 <_fpadd_parts+0x278>
    43a0:	e0 83 38 00 	l.add r4,r3,r7
    43a4:	bc 08 00 00 	l.sfeqi r8,0x0
    43a8:	10 00 00 7f 	l.bf 45a4 <_fpadd_parts+0x30c>
    43ac:	e0 87 18 02 	l.sub r4,r7,r3
    43b0:	e0 83 38 02 	l.sub r4,r3,r7
    43b4:	e4 44 18 00 	l.sfgtu r4,r3
    43b8:	10 00 00 03 	l.bf 43c4 <_fpadd_parts+0x12c>
    43bc:	9d 00 00 01 	l.addi r8,r0,0x1
    43c0:	9d 00 00 00 	l.addi r8,r0,0x0
    43c4:	e0 62 30 02 	l.sub r3,r2,r6
    43c8:	e0 63 40 02 	l.sub r3,r3,r8
    43cc:	bd 83 00 00 	l.sfltsi r3,0x0
    43d0:	10 00 00 7f 	l.bf 45cc <_fpadd_parts+0x334>
    43d4:	9c 40 00 01 	l.addi r2,r0,0x1
    43d8:	9d 60 00 00 	l.addi r11,r0,0x0
    43dc:	d4 05 60 08 	l.sw 0x8(r5),r12
    43e0:	d4 05 58 04 	l.sw 0x4(r5),r11
    43e4:	d4 05 18 0c 	l.sw 0xc(r5),r3
    43e8:	d4 05 20 10 	l.sw 0x10(r5),r4
    43ec:	9c c4 ff ff 	l.addi r6,r4,0xffffffff
    43f0:	e4 86 20 00 	l.sfltu r6,r4
    43f4:	10 00 00 03 	l.bf 4400 <_fpadd_parts+0x168>
    43f8:	9c 40 00 01 	l.addi r2,r0,0x1
    43fc:	9c 40 00 00 	l.addi r2,r0,0x0
    4400:	9c e3 ff ff 	l.addi r7,r3,0xffffffff
    4404:	19 a0 0f ff 	l.movhi r13,0xfff
    4408:	e0 42 38 00 	l.add r2,r2,r7
    440c:	a9 ad ff ff 	l.ori r13,r13,0xffff
    4410:	e4 42 68 00 	l.sfgtu r2,r13
    4414:	10 00 00 20 	l.bf 4494 <_fpadd_parts+0x1fc>
    4418:	e4 22 68 00 	l.sfne r2,r13
    441c:	0c 00 00 a1 	l.bnf 46a0 <_fpadd_parts+0x408>
    4420:	bc 46 ff fe 	l.sfgtui r6,0xfffffffe
    4424:	00 00 00 04 	l.j 4434 <_fpadd_parts+0x19c>
    4428:	84 45 00 08 	l.lwz r2,0x8(r5)
    442c:	0c 00 00 5a 	l.bnf 4594 <_fpadd_parts+0x2fc>
    4430:	bc 4b ff fe 	l.sfgtui r11,0xfffffffe
    4434:	e0 c4 20 00 	l.add r6,r4,r4
    4438:	e0 63 18 00 	l.add r3,r3,r3
    443c:	9d 66 ff ff 	l.addi r11,r6,0xffffffff
    4440:	e4 86 20 00 	l.sfltu r6,r4
    4444:	10 00 00 03 	l.bf 4450 <_fpadd_parts+0x1b8>
    4448:	9d 00 00 01 	l.addi r8,r0,0x1
    444c:	9d 00 00 00 	l.addi r8,r0,0x0
    4450:	e0 68 18 00 	l.add r3,r8,r3
    4454:	9c e0 00 01 	l.addi r7,r0,0x1
    4458:	e4 8b 30 00 	l.sfltu r11,r6
    445c:	9d 03 ff ff 	l.addi r8,r3,0xffffffff
    4460:	a8 86 00 00 	l.ori r4,r6,0x0
    4464:	10 00 00 03 	l.bf 4470 <_fpadd_parts+0x1d8>
    4468:	9c 42 ff ff 	l.addi r2,r2,0xffffffff
    446c:	9c e0 00 00 	l.addi r7,r0,0x0
    4470:	e0 e7 40 00 	l.add r7,r7,r8
    4474:	19 00 0f ff 	l.movhi r8,0xfff
    4478:	a9 08 ff ff 	l.ori r8,r8,0xffff
    447c:	e4 47 40 00 	l.sfgtu r7,r8
    4480:	0f ff ff eb 	l.bnf 442c <_fpadd_parts+0x194>
    4484:	e4 27 40 00 	l.sfne r7,r8
    4488:	d4 05 18 0c 	l.sw 0xc(r5),r3
    448c:	d4 05 30 10 	l.sw 0x10(r5),r6
    4490:	d4 05 10 08 	l.sw 0x8(r5),r2
    4494:	19 a0 1f ff 	l.movhi r13,0x1fff
    4498:	9c 40 00 03 	l.addi r2,r0,0x3
    449c:	a9 ad ff ff 	l.ori r13,r13,0xffff
    44a0:	e4 43 68 00 	l.sfgtu r3,r13
    44a4:	0c 00 00 0d 	l.bnf 44d8 <_fpadd_parts+0x240>
    44a8:	d4 05 10 00 	l.sw 0x0(r5),r2
    44ac:	b8 e3 00 1f 	l.slli r7,r3,0x1f
    44b0:	b8 44 00 41 	l.srli r2,r4,0x1
    44b4:	84 c5 00 08 	l.lwz r6,0x8(r5)
    44b8:	a4 84 00 01 	l.andi r4,r4,0x1
    44bc:	e0 47 10 04 	l.or r2,r7,r2
    44c0:	b8 63 00 41 	l.srli r3,r3,0x1
    44c4:	e0 44 10 04 	l.or r2,r4,r2
    44c8:	9c c6 00 01 	l.addi r6,r6,0x1
    44cc:	d4 05 18 0c 	l.sw 0xc(r5),r3
    44d0:	d4 05 10 10 	l.sw 0x10(r5),r2
    44d4:	d4 05 30 08 	l.sw 0x8(r5),r6
    44d8:	a9 65 00 00 	l.ori r11,r5,0x0
    44dc:	9c 21 00 08 	l.addi r1,r1,0x8
    44e0:	84 41 ff f8 	l.lwz r2,0xfffffff8(r1)
    44e4:	44 00 48 00 	l.jr r9
    44e8:	85 c1 ff fc 	l.lwz r14,0xfffffffc(r1)
    44ec:	10 00 00 26 	l.bf 4584 <_fpadd_parts+0x2ec>
    44f0:	15 00 00 00 	l.nop 0x0
    44f4:	85 0b 00 04 	l.lwz r8,0x4(r11)
    44f8:	84 84 00 04 	l.lwz r4,0x4(r4)
    44fc:	9c 40 00 00 	l.addi r2,r0,0x0
    4500:	e4 08 20 00 	l.sfeq r8,r4
    4504:	0f ff ff a8 	l.bnf 43a4 <_fpadd_parts+0x10c>
    4508:	9c 60 00 00 	l.addi r3,r0,0x0
    450c:	e0 83 38 00 	l.add r4,r3,r7
    4510:	d4 05 40 04 	l.sw 0x4(r5),r8
    4514:	d4 05 60 08 	l.sw 0x8(r5),r12
    4518:	e4 84 18 00 	l.sfltu r4,r3
    451c:	10 00 00 03 	l.bf 4528 <_fpadd_parts+0x290>
    4520:	9d 00 00 01 	l.addi r8,r0,0x1
    4524:	9d 00 00 00 	l.addi r8,r0,0x0
    4528:	e0 42 30 00 	l.add r2,r2,r6
    452c:	d4 05 20 10 	l.sw 0x10(r5),r4
    4530:	e0 68 10 00 	l.add r3,r8,r2
    4534:	03 ff ff d8 	l.j 4494 <_fpadd_parts+0x1fc>
    4538:	d4 05 18 0c 	l.sw 0xc(r5),r3
    453c:	bc 22 00 02 	l.sfnei r2,0x2
    4540:	13 ff ff e7 	l.bf 44dc <_fpadd_parts+0x244>
    4544:	15 00 00 00 	l.nop 0x0
    4548:	d4 05 10 00 	l.sw 0x0(r5),r2
    454c:	84 4b 00 04 	l.lwz r2,0x4(r11)
    4550:	d4 05 10 04 	l.sw 0x4(r5),r2
    4554:	84 4b 00 08 	l.lwz r2,0x8(r11)
    4558:	d4 05 10 08 	l.sw 0x8(r5),r2
    455c:	84 4b 00 0c 	l.lwz r2,0xc(r11)
    4560:	d4 05 10 0c 	l.sw 0xc(r5),r2
    4564:	84 4b 00 10 	l.lwz r2,0x10(r11)
    4568:	d4 05 10 10 	l.sw 0x10(r5),r2
    456c:	84 4b 00 04 	l.lwz r2,0x4(r11)
    4570:	84 64 00 04 	l.lwz r3,0x4(r4)
    4574:	a9 65 00 00 	l.ori r11,r5,0x0
    4578:	e0 43 10 03 	l.and r2,r3,r2
    457c:	03 ff ff d8 	l.j 44dc <_fpadd_parts+0x244>
    4580:	d4 05 10 04 	l.sw 0x4(r5),r2
    4584:	a9 8f 00 00 	l.ori r12,r15,0x0
    4588:	9c c0 00 00 	l.addi r6,r0,0x0
    458c:	03 ff ff 81 	l.j 4390 <_fpadd_parts+0xf8>
    4590:	9c e0 00 00 	l.addi r7,r0,0x0
    4594:	0f ff ff a8 	l.bnf 4434 <_fpadd_parts+0x19c>
    4598:	15 00 00 00 	l.nop 0x0
    459c:	03 ff ff bc 	l.j 448c <_fpadd_parts+0x1f4>
    45a0:	d4 05 18 0c 	l.sw 0xc(r5),r3
    45a4:	e4 44 38 00 	l.sfgtu r4,r7
    45a8:	10 00 00 03 	l.bf 45b4 <_fpadd_parts+0x31c>
    45ac:	9d 60 00 01 	l.addi r11,r0,0x1
    45b0:	a9 68 00 00 	l.ori r11,r8,0x0
    45b4:	e0 66 10 02 	l.sub r3,r6,r2
    45b8:	e0 63 58 02 	l.sub r3,r3,r11
    45bc:	bd 83 00 00 	l.sfltsi r3,0x0
    45c0:	0f ff ff 87 	l.bnf 43dc <_fpadd_parts+0x144>
    45c4:	9d 60 00 00 	l.addi r11,r0,0x0
    45c8:	9c 40 00 01 	l.addi r2,r0,0x1
    45cc:	e0 80 20 02 	l.sub r4,r0,r4
    45d0:	d4 05 10 04 	l.sw 0x4(r5),r2
    45d4:	bc 44 00 00 	l.sfgtui r4,0x0
    45d8:	10 00 00 03 	l.bf 45e4 <_fpadd_parts+0x34c>
    45dc:	d4 05 60 08 	l.sw 0x8(r5),r12
    45e0:	9c 40 00 00 	l.addi r2,r0,0x0
    45e4:	e0 60 18 02 	l.sub r3,r0,r3
    45e8:	d4 05 20 10 	l.sw 0x10(r5),r4
    45ec:	e0 63 10 02 	l.sub r3,r3,r2
    45f0:	03 ff ff 7f 	l.j 43ec <_fpadd_parts+0x154>
    45f4:	d4 05 18 0c 	l.sw 0xc(r5),r3
    45f8:	9c 21 00 08 	l.addi r1,r1,0x8
    45fc:	a9 64 00 00 	l.ori r11,r4,0x0
    4600:	84 41 ff f8 	l.lwz r2,0xfffffff8(r1)
    4604:	44 00 48 00 	l.jr r9
    4608:	85 c1 ff fc 	l.lwz r14,0xfffffffc(r1)
    460c:	13 ff ff 61 	l.bf 4390 <_fpadd_parts+0xf8>
    4610:	9d a8 ff e0 	l.addi r13,r8,0xffffffe0
    4614:	bd 8d 00 00 	l.sfltsi r13,0x0
    4618:	10 00 00 2c 	l.bf 46c8 <_fpadd_parts+0x430>
    461c:	e1 8c 40 00 	l.add r12,r12,r8
    4620:	e1 e6 68 48 	l.srl r15,r6,r13
    4624:	9e a0 00 00 	l.addi r21,r0,0x0
    4628:	bd 8d 00 00 	l.sfltsi r13,0x0
    462c:	10 00 00 24 	l.bf 46bc <_fpadd_parts+0x424>
    4630:	9e 20 00 01 	l.addi r17,r0,0x1
    4634:	9d 00 00 00 	l.addi r8,r0,0x0
    4638:	e1 b1 68 08 	l.sll r13,r17,r13
    463c:	9e 28 ff ff 	l.addi r17,r8,0xffffffff
    4640:	e4 91 40 00 	l.sfltu r17,r8
    4644:	10 00 00 03 	l.bf 4650 <_fpadd_parts+0x3b8>
    4648:	9e 60 00 01 	l.addi r19,r0,0x1
    464c:	9e 60 00 00 	l.addi r19,r0,0x0
    4650:	9d 0d ff ff 	l.addi r8,r13,0xffffffff
    4654:	e2 31 38 03 	l.and r17,r17,r7
    4658:	e1 13 40 00 	l.add r8,r19,r8
    465c:	e1 08 30 03 	l.and r8,r8,r6
    4660:	a8 d5 00 00 	l.ori r6,r21,0x0
    4664:	e1 08 88 04 	l.or r8,r8,r17
    4668:	e1 a0 40 02 	l.sub r13,r0,r8
    466c:	e1 0d 40 04 	l.or r8,r13,r8
    4670:	b9 08 00 5f 	l.srli r8,r8,0x1f
    4674:	03 ff ff 47 	l.j 4390 <_fpadd_parts+0xf8>
    4678:	e0 e8 78 04 	l.or r7,r8,r15
    467c:	9e 20 00 1f 	l.addi r17,r0,0x1f
    4680:	ba 6e 00 01 	l.slli r19,r14,0x1
    4684:	e2 31 40 02 	l.sub r17,r17,r8
    4688:	e1 e3 40 48 	l.srl r15,r3,r8
    468c:	e2 33 88 08 	l.sll r17,r19,r17
    4690:	a9 c2 00 00 	l.ori r14,r2,0x0
    4694:	e1 f1 78 04 	l.or r15,r17,r15
    4698:	03 ff ff 29 	l.j 433c <_fpadd_parts+0xa4>
    469c:	e2 ae 40 48 	l.srl r21,r14,r8
    46a0:	0f ff ff 61 	l.bnf 4424 <_fpadd_parts+0x18c>
    46a4:	15 00 00 00 	l.nop 0x0
    46a8:	03 ff ff 7c 	l.j 4498 <_fpadd_parts+0x200>
    46ac:	19 a0 1f ff 	l.movhi r13,0x1fff
    46b0:	9d a0 00 00 	l.addi r13,r0,0x0
    46b4:	03 ff ff 27 	l.j 4350 <_fpadd_parts+0xb8>
    46b8:	e1 11 40 08 	l.sll r8,r17,r8
    46bc:	9d a0 00 00 	l.addi r13,r0,0x0
    46c0:	03 ff ff df 	l.j 463c <_fpadd_parts+0x3a4>
    46c4:	e1 11 40 08 	l.sll r8,r17,r8
    46c8:	9e 20 00 1f 	l.addi r17,r0,0x1f
    46cc:	ba 66 00 01 	l.slli r19,r6,0x1
    46d0:	e2 31 40 02 	l.sub r17,r17,r8
    46d4:	e1 e7 40 48 	l.srl r15,r7,r8
    46d8:	e2 33 88 08 	l.sll r17,r19,r17
    46dc:	e2 a6 40 48 	l.srl r21,r6,r8
    46e0:	03 ff ff d2 	l.j 4628 <_fpadd_parts+0x390>
    46e4:	e1 f1 78 04 	l.or r15,r17,r15
    46e8:	bc 23 00 04 	l.sfnei r3,0x4
    46ec:	13 ff ff 7c 	l.bf 44dc <_fpadd_parts+0x244>
    46f0:	15 00 00 00 	l.nop 0x0
    46f4:	84 6b 00 04 	l.lwz r3,0x4(r11)
    46f8:	84 44 00 04 	l.lwz r2,0x4(r4)
    46fc:	e4 23 10 00 	l.sfne r3,r2
    4700:	0f ff ff 77 	l.bnf 44dc <_fpadd_parts+0x244>
    4704:	15 00 00 00 	l.nop 0x0
    4708:	19 60 00 00 	l.movhi r11,0x0
    470c:	03 ff ff 74 	l.j 44dc <_fpadd_parts+0x244>
    4710:	a9 6b 60 40 	l.ori r11,r11,0x6040

00004714 <__pack_d>:
    4714:	d7 e1 87 ec 	l.sw 0xffffffec(r1),r16
    4718:	d7 e1 4f fc 	l.sw 0xfffffffc(r1),r9
    471c:	d7 e1 17 e4 	l.sw 0xffffffe4(r1),r2
    4720:	d7 e1 77 e8 	l.sw 0xffffffe8(r1),r14
    4724:	d7 e1 97 f0 	l.sw 0xfffffff0(r1),r18
    4728:	d7 e1 a7 f4 	l.sw 0xfffffff4(r1),r20
    472c:	d7 e1 b7 f8 	l.sw 0xfffffff8(r1),r22
    4730:	84 83 00 00 	l.lwz r4,0x0(r3)
    4734:	9c 21 ff dc 	l.addi r1,r1,0xffffffdc
    4738:	84 43 00 0c 	l.lwz r2,0xc(r3)
    473c:	85 c3 00 10 	l.lwz r14,0x10(r3)
    4740:	bc 44 00 01 	l.sfgtui r4,0x1
    4744:	0c 00 00 51 	l.bnf 4888 <__pack_d+0x174>
    4748:	86 03 00 04 	l.lwz r16,0x4(r3)
    474c:	bc 04 00 04 	l.sfeqi r4,0x4
    4750:	10 00 00 49 	l.bf 4874 <__pack_d+0x160>
    4754:	bc 04 00 02 	l.sfeqi r4,0x2
    4758:	10 00 00 2a 	l.bf 4800 <__pack_d+0xec>
    475c:	e0 82 70 04 	l.or r4,r2,r14
    4760:	bc 04 00 00 	l.sfeqi r4,0x0
    4764:	10 00 00 27 	l.bf 4800 <__pack_d+0xec>
    4768:	15 00 00 00 	l.nop 0x0
    476c:	84 63 00 08 	l.lwz r3,0x8(r3)
    4770:	bd 63 fc 02 	l.sfgesi r3,0xfffffc02
    4774:	0c 00 00 4e 	l.bnf 48ac <__pack_d+0x198>
    4778:	bd 43 03 ff 	l.sfgtsi r3,0x3ff
    477c:	10 00 00 3e 	l.bf 4874 <__pack_d+0x160>
    4780:	a4 8e 00 ff 	l.andi r4,r14,0xff
    4784:	bc 24 00 80 	l.sfnei r4,0x80
    4788:	0c 00 00 31 	l.bnf 484c <__pack_d+0x138>
    478c:	9c 63 03 ff 	l.addi r3,r3,0x3ff
    4790:	9c 8e 00 7f 	l.addi r4,r14,0x7f
    4794:	e4 84 70 00 	l.sfltu r4,r14
    4798:	0c 00 00 35 	l.bnf 486c <__pack_d+0x158>
    479c:	9c a0 00 01 	l.addi r5,r0,0x1
    47a0:	e0 45 10 00 	l.add r2,r5,r2
    47a4:	a9 c4 00 00 	l.ori r14,r4,0x0
    47a8:	18 a0 1f ff 	l.movhi r5,0x1fff
    47ac:	a8 a5 ff ff 	l.ori r5,r5,0xffff
    47b0:	e4 42 28 00 	l.sfgtu r2,r5
    47b4:	0c 00 00 06 	l.bnf 47cc <__pack_d+0xb8>
    47b8:	b8 82 00 1f 	l.slli r4,r2,0x1f
    47bc:	b9 ce 00 41 	l.srli r14,r14,0x1
    47c0:	b8 42 00 41 	l.srli r2,r2,0x1
    47c4:	9c 63 00 01 	l.addi r3,r3,0x1
    47c8:	e1 c4 70 04 	l.or r14,r4,r14
    47cc:	a4 a3 07 ff 	l.andi r5,r3,0x7ff
    47d0:	19 00 00 0f 	l.movhi r8,0xf
    47d4:	b8 e2 00 48 	l.srli r7,r2,0x8
    47d8:	b8 a5 00 14 	l.slli r5,r5,0x14
    47dc:	a9 08 ff ff 	l.ori r8,r8,0xffff
    47e0:	b8 82 00 18 	l.slli r4,r2,0x18
    47e4:	b9 ce 00 48 	l.srli r14,r14,0x8
    47e8:	a8 45 00 00 	l.ori r2,r5,0x0
    47ec:	e0 a7 40 03 	l.and r5,r7,r8
    47f0:	9c e0 00 00 	l.addi r7,r0,0x0
    47f4:	e0 c4 70 04 	l.or r6,r4,r14
    47f8:	00 00 00 06 	l.j 4810 <__pack_d+0xfc>
    47fc:	a8 67 00 00 	l.ori r3,r7,0x0
    4800:	9c 40 00 00 	l.addi r2,r0,0x0
    4804:	9c 60 00 00 	l.addi r3,r0,0x0
    4808:	e0 a2 00 04 	l.or r5,r2,r0
    480c:	e0 c3 00 04 	l.or r6,r3,r0
    4810:	b8 90 00 1f 	l.slli r4,r16,0x1f
    4814:	9c 21 00 24 	l.addi r1,r1,0x24
    4818:	e0 e5 10 04 	l.or r7,r5,r2
    481c:	85 21 ff fc 	l.lwz r9,0xfffffffc(r1)
    4820:	e0 46 18 04 	l.or r2,r6,r3
    4824:	e0 67 20 04 	l.or r3,r7,r4
    4828:	a9 82 00 00 	l.ori r12,r2,0x0
    482c:	a9 63 00 00 	l.ori r11,r3,0x0
    4830:	84 41 ff e4 	l.lwz r2,0xffffffe4(r1)
    4834:	85 c1 ff e8 	l.lwz r14,0xffffffe8(r1)
    4838:	86 01 ff ec 	l.lwz r16,0xffffffec(r1)
    483c:	86 41 ff f0 	l.lwz r18,0xfffffff0(r1)
    4840:	86 81 ff f4 	l.lwz r20,0xfffffff4(r1)
    4844:	44 00 48 00 	l.jr r9
    4848:	86 c1 ff f8 	l.lwz r22,0xfffffff8(r1)
    484c:	a4 8e 01 00 	l.andi r4,r14,0x100
    4850:	bc 04 00 00 	l.sfeqi r4,0x0
    4854:	13 ff ff d6 	l.bf 47ac <__pack_d+0x98>
    4858:	18 a0 1f ff 	l.movhi r5,0x1fff
    485c:	9c 8e 00 80 	l.addi r4,r14,0x80
    4860:	e4 84 70 00 	l.sfltu r4,r14
    4864:	13 ff ff cf 	l.bf 47a0 <__pack_d+0x8c>
    4868:	9c a0 00 01 	l.addi r5,r0,0x1
    486c:	03 ff ff cd 	l.j 47a0 <__pack_d+0x8c>
    4870:	9c a0 00 00 	l.addi r5,r0,0x0
    4874:	18 40 7f f0 	l.movhi r2,0x7ff0
    4878:	9c 60 00 00 	l.addi r3,r0,0x0
    487c:	9c a0 00 00 	l.addi r5,r0,0x0
    4880:	03 ff ff e4 	l.j 4810 <__pack_d+0xfc>
    4884:	9c c0 00 00 	l.addi r6,r0,0x0
    4888:	18 60 00 08 	l.movhi r3,0x8
    488c:	18 80 00 0f 	l.movhi r4,0xf
    4890:	e0 42 18 04 	l.or r2,r2,r3
    4894:	a8 84 ff ff 	l.ori r4,r4,0xffff
    4898:	9c 60 00 00 	l.addi r3,r0,0x0
    489c:	e0 a2 20 03 	l.and r5,r2,r4
    48a0:	a8 ce 00 00 	l.ori r6,r14,0x0
    48a4:	03 ff ff db 	l.j 4810 <__pack_d+0xfc>
    48a8:	18 40 7f f0 	l.movhi r2,0x7ff0
    48ac:	9e 40 fc 02 	l.addi r18,r0,0xfffffc02
    48b0:	9c e0 00 00 	l.addi r7,r0,0x0
    48b4:	9d 00 00 00 	l.addi r8,r0,0x0
    48b8:	e2 52 18 02 	l.sub r18,r18,r3
    48bc:	d4 01 38 00 	l.sw 0x0(r1),r7
    48c0:	d4 01 40 04 	l.sw 0x4(r1),r8
    48c4:	bd 52 00 38 	l.sfgtsi r18,0x38
    48c8:	10 00 00 46 	l.bf 49e0 <__pack_d+0x2cc>
    48cc:	85 01 00 04 	l.lwz r8,0x4(r1)
    48d0:	a8 62 00 00 	l.ori r3,r2,0x0
    48d4:	a8 8e 00 00 	l.ori r4,r14,0x0
    48d8:	04 00 05 2d 	l.jal 5d8c <__lshrdi3>
    48dc:	a8 b2 00 00 	l.ori r5,r18,0x0
    48e0:	a8 b2 00 00 	l.ori r5,r18,0x0
    48e4:	9c 60 00 00 	l.addi r3,r0,0x0
    48e8:	9c 80 00 01 	l.addi r4,r0,0x1
    48ec:	aa cb 00 00 	l.ori r22,r11,0x0
    48f0:	04 00 05 3b 	l.jal 5ddc <__ashldi3>
    48f4:	aa 8c 00 00 	l.ori r20,r12,0x0
    48f8:	9c 80 00 01 	l.addi r4,r0,0x1
    48fc:	a8 6b 00 00 	l.ori r3,r11,0x0
    4900:	bc 2c 00 00 	l.sfnei r12,0x0
    4904:	10 00 00 03 	l.bf 4910 <__pack_d+0x1fc>
    4908:	9c ac ff ff 	l.addi r5,r12,0xffffffff
    490c:	9c 80 00 00 	l.addi r4,r0,0x0
    4910:	9c 63 ff ff 	l.addi r3,r3,0xffffffff
    4914:	e1 c5 70 03 	l.and r14,r5,r14
    4918:	e0 84 18 00 	l.add r4,r4,r3
    491c:	d4 01 b0 00 	l.sw 0x0(r1),r22
    4920:	e0 44 10 03 	l.and r2,r4,r2
    4924:	e0 42 70 04 	l.or r2,r2,r14
    4928:	e0 60 10 02 	l.sub r3,r0,r2
    492c:	e0 43 10 04 	l.or r2,r3,r2
    4930:	b8 42 00 5f 	l.srli r2,r2,0x1f
    4934:	e2 82 a0 04 	l.or r20,r2,r20
    4938:	a4 54 00 ff 	l.andi r2,r20,0xff
    493c:	bc 22 00 80 	l.sfnei r2,0x80
    4940:	10 00 00 27 	l.bf 49dc <__pack_d+0x2c8>
    4944:	d4 01 a0 04 	l.sw 0x4(r1),r20
    4948:	a4 54 01 00 	l.andi r2,r20,0x100
    494c:	bc 02 00 00 	l.sfeqi r2,0x0
    4950:	10 00 00 0e 	l.bf 4988 <__pack_d+0x274>
    4954:	85 01 00 00 	l.lwz r8,0x0(r1)
    4958:	9c 54 00 80 	l.addi r2,r20,0x80
    495c:	e4 82 a0 00 	l.sfltu r2,r20
    4960:	0c 00 00 24 	l.bnf 49f0 <__pack_d+0x2dc>
    4964:	9c 60 00 01 	l.addi r3,r0,0x1
    4968:	84 e1 00 00 	l.lwz r7,0x0(r1)
    496c:	a8 82 00 00 	l.ori r4,r2,0x0
    4970:	e0 a3 38 00 	l.add r5,r3,r7
    4974:	a8 64 00 00 	l.ori r3,r4,0x0
    4978:	a8 45 00 00 	l.ori r2,r5,0x0
    497c:	d4 01 10 00 	l.sw 0x0(r1),r2
    4980:	d4 01 18 04 	l.sw 0x4(r1),r3
    4984:	85 01 00 00 	l.lwz r8,0x0(r1)
    4988:	84 a1 00 04 	l.lwz r5,0x4(r1)
    498c:	b8 e8 00 18 	l.slli r7,r8,0x18
    4990:	b8 85 00 48 	l.srli r4,r5,0x8
    4994:	b8 48 00 48 	l.srli r2,r8,0x8
    4998:	19 00 00 0f 	l.movhi r8,0xf
    499c:	e0 c7 20 04 	l.or r6,r7,r4
    49a0:	18 e0 0f ff 	l.movhi r7,0xfff
    49a4:	a9 08 ff ff 	l.ori r8,r8,0xffff
    49a8:	84 81 00 00 	l.lwz r4,0x0(r1)
    49ac:	a8 e7 ff ff 	l.ori r7,r7,0xffff
    49b0:	e0 a2 40 03 	l.and r5,r2,r8
    49b4:	e4 44 38 00 	l.sfgtu r4,r7
    49b8:	10 00 00 03 	l.bf 49c4 <__pack_d+0x2b0>
    49bc:	9c 60 00 01 	l.addi r3,r0,0x1
    49c0:	9c 60 00 00 	l.addi r3,r0,0x0
    49c4:	a4 83 07 ff 	l.andi r4,r3,0x7ff
    49c8:	b8 84 00 14 	l.slli r4,r4,0x14
    49cc:	a8 44 00 00 	l.ori r2,r4,0x0
    49d0:	9c 80 00 00 	l.addi r4,r0,0x0
    49d4:	03 ff ff 8f 	l.j 4810 <__pack_d+0xfc>
    49d8:	a8 64 00 00 	l.ori r3,r4,0x0
    49dc:	85 01 00 04 	l.lwz r8,0x4(r1)
    49e0:	9c 48 00 7f 	l.addi r2,r8,0x7f
    49e4:	e4 82 40 00 	l.sfltu r2,r8
    49e8:	13 ff ff e0 	l.bf 4968 <__pack_d+0x254>
    49ec:	9c 60 00 01 	l.addi r3,r0,0x1
    49f0:	03 ff ff de 	l.j 4968 <__pack_d+0x254>
    49f4:	9c 60 00 00 	l.addi r3,r0,0x0

000049f8 <__unpack_d>:
    49f8:	d7 e1 17 fc 	l.sw 0xfffffffc(r1),r2
    49fc:	18 40 00 0f 	l.movhi r2,0xf
    4a00:	84 c3 00 00 	l.lwz r6,0x0(r3)
    4a04:	84 a3 00 04 	l.lwz r5,0x4(r3)
    4a08:	b8 e6 00 54 	l.srli r7,r6,0x14
    4a0c:	b9 06 00 5f 	l.srli r8,r6,0x1f
    4a10:	a8 42 ff ff 	l.ori r2,r2,0xffff
    4a14:	a4 e7 07 ff 	l.andi r7,r7,0x7ff
    4a18:	d4 04 40 04 	l.sw 0x4(r4),r8
    4a1c:	9c 21 ff fc 	l.addi r1,r1,0xfffffffc
    4a20:	bc 27 00 00 	l.sfnei r7,0x0
    4a24:	10 00 00 22 	l.bf 4aac <__unpack_d+0xb4>
    4a28:	e0 66 10 03 	l.and r3,r6,r2
    4a2c:	e0 c3 28 04 	l.or r6,r3,r5
    4a30:	bc 26 00 00 	l.sfnei r6,0x0
    4a34:	0c 00 00 2f 	l.bnf 4af0 <__unpack_d+0xf8>
    4a38:	b8 c5 00 58 	l.srli r6,r5,0x18
    4a3c:	b8 63 00 08 	l.slli r3,r3,0x8
    4a40:	9c e0 fc 02 	l.addi r7,r0,0xfffffc02
    4a44:	b8 a5 00 08 	l.slli r5,r5,0x8
    4a48:	e0 66 18 04 	l.or r3,r6,r3
    4a4c:	9c c0 00 03 	l.addi r6,r0,0x3
    4a50:	d4 04 38 08 	l.sw 0x8(r4),r7
    4a54:	d4 04 30 00 	l.sw 0x0(r4),r6
    4a58:	9c c0 fc 01 	l.addi r6,r0,0xfffffc01
    4a5c:	e0 e5 28 00 	l.add r7,r5,r5
    4a60:	e0 63 18 00 	l.add r3,r3,r3
    4a64:	e4 87 28 00 	l.sfltu r7,r5
    4a68:	10 00 00 03 	l.bf 4a74 <__unpack_d+0x7c>
    4a6c:	9d 00 00 01 	l.addi r8,r0,0x1
    4a70:	9d 00 00 00 	l.addi r8,r0,0x0
    4a74:	18 40 0f ff 	l.movhi r2,0xfff
    4a78:	e0 68 18 00 	l.add r3,r8,r3
    4a7c:	a8 42 ff ff 	l.ori r2,r2,0xffff
    4a80:	a9 66 00 00 	l.ori r11,r6,0x0
    4a84:	a8 a7 00 00 	l.ori r5,r7,0x0
    4a88:	e4 43 10 00 	l.sfgtu r3,r2
    4a8c:	0f ff ff f4 	l.bnf 4a5c <__unpack_d+0x64>
    4a90:	9c c6 ff ff 	l.addi r6,r6,0xffffffff
    4a94:	9c 21 00 04 	l.addi r1,r1,0x4
    4a98:	d4 04 58 08 	l.sw 0x8(r4),r11
    4a9c:	d4 04 18 0c 	l.sw 0xc(r4),r3
    4aa0:	d4 04 38 10 	l.sw 0x10(r4),r7
    4aa4:	44 00 48 00 	l.jr r9
    4aa8:	84 41 ff fc 	l.lwz r2,0xfffffffc(r1)
    4aac:	bc 27 07 ff 	l.sfnei r7,0x7ff
    4ab0:	0c 00 00 15 	l.bnf 4b04 <__unpack_d+0x10c>
    4ab4:	9c e7 fc 01 	l.addi r7,r7,0xfffffc01
    4ab8:	b8 c5 00 58 	l.srli r6,r5,0x18
    4abc:	b8 63 00 08 	l.slli r3,r3,0x8
    4ac0:	18 40 10 00 	l.movhi r2,0x1000
    4ac4:	e0 66 18 04 	l.or r3,r6,r3
    4ac8:	b8 a5 00 08 	l.slli r5,r5,0x8
    4acc:	e0 63 10 04 	l.or r3,r3,r2
    4ad0:	d4 04 38 08 	l.sw 0x8(r4),r7
    4ad4:	9c c0 00 03 	l.addi r6,r0,0x3
    4ad8:	d4 04 30 00 	l.sw 0x0(r4),r6
    4adc:	d4 04 18 0c 	l.sw 0xc(r4),r3
    4ae0:	d4 04 28 10 	l.sw 0x10(r4),r5
    4ae4:	9c 21 00 04 	l.addi r1,r1,0x4
    4ae8:	44 00 48 00 	l.jr r9
    4aec:	84 41 ff fc 	l.lwz r2,0xfffffffc(r1)
    4af0:	9c 60 00 02 	l.addi r3,r0,0x2
    4af4:	9c 21 00 04 	l.addi r1,r1,0x4
    4af8:	d4 04 18 00 	l.sw 0x0(r4),r3
    4afc:	44 00 48 00 	l.jr r9
    4b00:	84 41 ff fc 	l.lwz r2,0xfffffffc(r1)
    4b04:	e0 e3 28 04 	l.or r7,r3,r5
    4b08:	bc 27 00 00 	l.sfnei r7,0x0
    4b0c:	0c 00 00 0a 	l.bnf 4b34 <__unpack_d+0x13c>
    4b10:	15 00 00 00 	l.nop 0x0
    4b14:	18 40 00 08 	l.movhi r2,0x8
    4b18:	e0 c6 10 03 	l.and r6,r6,r2
    4b1c:	bc 06 00 00 	l.sfeqi r6,0x0
    4b20:	13 ff ff ee 	l.bf 4ad8 <__unpack_d+0xe0>
    4b24:	15 00 00 00 	l.nop 0x0
    4b28:	9c c0 00 01 	l.addi r6,r0,0x1
    4b2c:	03 ff ff ec 	l.j 4adc <__unpack_d+0xe4>
    4b30:	d4 04 30 00 	l.sw 0x0(r4),r6
    4b34:	9c 60 00 04 	l.addi r3,r0,0x4
    4b38:	03 ff ff eb 	l.j 4ae4 <__unpack_d+0xec>
    4b3c:	d4 04 18 00 	l.sw 0x0(r4),r3

00004b40 <__adddf3>:
    4b40:	d7 e1 4f fc 	l.sw 0xfffffffc(r1),r9
    4b44:	d7 e1 17 f4 	l.sw 0xfffffff4(r1),r2
    4b48:	d7 e1 77 f8 	l.sw 0xfffffff8(r1),r14
    4b4c:	9c 21 ff a8 	l.addi r1,r1,0xffffffa8
    4b50:	9d c1 00 28 	l.addi r14,r1,0x28
    4b54:	d4 01 18 44 	l.sw 0x44(r1),r3
    4b58:	d4 01 20 48 	l.sw 0x48(r1),r4
    4b5c:	9c 61 00 44 	l.addi r3,r1,0x44
    4b60:	a8 8e 00 00 	l.ori r4,r14,0x0
    4b64:	d4 01 28 3c 	l.sw 0x3c(r1),r5
    4b68:	d4 01 30 40 	l.sw 0x40(r1),r6
    4b6c:	07 ff ff a3 	l.jal 49f8 <__unpack_d>
    4b70:	9c 41 00 14 	l.addi r2,r1,0x14
    4b74:	9c 61 00 3c 	l.addi r3,r1,0x3c
    4b78:	07 ff ff a0 	l.jal 49f8 <__unpack_d>
    4b7c:	a8 82 00 00 	l.ori r4,r2,0x0
    4b80:	a8 6e 00 00 	l.ori r3,r14,0x0
    4b84:	a8 82 00 00 	l.ori r4,r2,0x0
    4b88:	07 ff fd c4 	l.jal 4298 <_fpadd_parts>
    4b8c:	a8 a1 00 00 	l.ori r5,r1,0x0
    4b90:	07 ff fe e1 	l.jal 4714 <__pack_d>
    4b94:	a8 6b 00 00 	l.ori r3,r11,0x0
    4b98:	9c 21 00 58 	l.addi r1,r1,0x58
    4b9c:	a8 4b 00 00 	l.ori r2,r11,0x0
    4ba0:	a8 6c 00 00 	l.ori r3,r12,0x0
    4ba4:	85 21 ff fc 	l.lwz r9,0xfffffffc(r1)
    4ba8:	e1 62 00 04 	l.or r11,r2,r0
    4bac:	e1 83 00 04 	l.or r12,r3,r0
    4bb0:	85 c1 ff f8 	l.lwz r14,0xfffffff8(r1)
    4bb4:	44 00 48 00 	l.jr r9
    4bb8:	84 41 ff f4 	l.lwz r2,0xfffffff4(r1)

00004bbc <__subdf3>:
    4bbc:	d7 e1 4f fc 	l.sw 0xfffffffc(r1),r9
    4bc0:	d7 e1 17 f4 	l.sw 0xfffffff4(r1),r2
    4bc4:	d7 e1 77 f8 	l.sw 0xfffffff8(r1),r14
    4bc8:	9c 21 ff a8 	l.addi r1,r1,0xffffffa8
    4bcc:	9c 41 00 28 	l.addi r2,r1,0x28
    4bd0:	d4 01 18 44 	l.sw 0x44(r1),r3
    4bd4:	d4 01 20 48 	l.sw 0x48(r1),r4
    4bd8:	9c 61 00 44 	l.addi r3,r1,0x44
    4bdc:	a8 82 00 00 	l.ori r4,r2,0x0
    4be0:	d4 01 28 3c 	l.sw 0x3c(r1),r5
    4be4:	d4 01 30 40 	l.sw 0x40(r1),r6
    4be8:	07 ff ff 84 	l.jal 49f8 <__unpack_d>
    4bec:	9d c1 00 14 	l.addi r14,r1,0x14
    4bf0:	9c 61 00 3c 	l.addi r3,r1,0x3c
    4bf4:	07 ff ff 81 	l.jal 49f8 <__unpack_d>
    4bf8:	a8 8e 00 00 	l.ori r4,r14,0x0
    4bfc:	84 c1 00 18 	l.lwz r6,0x18(r1)
    4c00:	a8 8e 00 00 	l.ori r4,r14,0x0
    4c04:	ac c6 00 01 	l.xori r6,r6,0x1
    4c08:	a8 a1 00 00 	l.ori r5,r1,0x0
    4c0c:	a8 62 00 00 	l.ori r3,r2,0x0
    4c10:	07 ff fd a2 	l.jal 4298 <_fpadd_parts>
    4c14:	d4 01 30 18 	l.sw 0x18(r1),r6
    4c18:	07 ff fe bf 	l.jal 4714 <__pack_d>
    4c1c:	a8 6b 00 00 	l.ori r3,r11,0x0
    4c20:	9c 21 00 58 	l.addi r1,r1,0x58
    4c24:	a8 4b 00 00 	l.ori r2,r11,0x0
    4c28:	a8 6c 00 00 	l.ori r3,r12,0x0
    4c2c:	85 21 ff fc 	l.lwz r9,0xfffffffc(r1)
    4c30:	e1 62 00 04 	l.or r11,r2,r0
    4c34:	e1 83 00 04 	l.or r12,r3,r0
    4c38:	85 c1 ff f8 	l.lwz r14,0xfffffff8(r1)
    4c3c:	44 00 48 00 	l.jr r9
    4c40:	84 41 ff f4 	l.lwz r2,0xfffffff4(r1)

00004c44 <__muldf3>:
    4c44:	d7 e1 4f fc 	l.sw 0xfffffffc(r1),r9
    4c48:	d7 e1 17 dc 	l.sw 0xffffffdc(r1),r2
    4c4c:	d7 e1 77 e0 	l.sw 0xffffffe0(r1),r14
    4c50:	d7 e1 87 e4 	l.sw 0xffffffe4(r1),r16
    4c54:	d7 e1 97 e8 	l.sw 0xffffffe8(r1),r18
    4c58:	d7 e1 a7 ec 	l.sw 0xffffffec(r1),r20
    4c5c:	d7 e1 b7 f0 	l.sw 0xfffffff0(r1),r22
    4c60:	d7 e1 c7 f4 	l.sw 0xfffffff4(r1),r24
    4c64:	d7 e1 d7 f8 	l.sw 0xfffffff8(r1),r26
    4c68:	9c 21 ff 90 	l.addi r1,r1,0xffffff90
    4c6c:	9d c1 00 28 	l.addi r14,r1,0x28
    4c70:	d4 01 18 44 	l.sw 0x44(r1),r3
    4c74:	d4 01 20 48 	l.sw 0x48(r1),r4
    4c78:	9c 61 00 44 	l.addi r3,r1,0x44
    4c7c:	a8 8e 00 00 	l.ori r4,r14,0x0
    4c80:	d4 01 28 3c 	l.sw 0x3c(r1),r5
    4c84:	d4 01 30 40 	l.sw 0x40(r1),r6
    4c88:	07 ff ff 5c 	l.jal 49f8 <__unpack_d>
    4c8c:	9e 01 00 14 	l.addi r16,r1,0x14
    4c90:	9c 61 00 3c 	l.addi r3,r1,0x3c
    4c94:	07 ff ff 59 	l.jal 49f8 <__unpack_d>
    4c98:	a8 90 00 00 	l.ori r4,r16,0x0
    4c9c:	84 41 00 28 	l.lwz r2,0x28(r1)
    4ca0:	bc 42 00 01 	l.sfgtui r2,0x1
    4ca4:	0c 00 00 c7 	l.bnf 4fc0 <__muldf3+0x37c>
    4ca8:	84 a1 00 14 	l.lwz r5,0x14(r1)
    4cac:	bc 45 00 01 	l.sfgtui r5,0x1
    4cb0:	0c 00 00 df 	l.bnf 502c <__muldf3+0x3e8>
    4cb4:	bc 22 00 04 	l.sfnei r2,0x4
    4cb8:	0c 00 00 be 	l.bnf 4fb0 <__muldf3+0x36c>
    4cbc:	bc 25 00 04 	l.sfnei r5,0x4
    4cc0:	0c 00 00 d7 	l.bnf 501c <__muldf3+0x3d8>
    4cc4:	bc 22 00 02 	l.sfnei r2,0x2
    4cc8:	0c 00 00 be 	l.bnf 4fc0 <__muldf3+0x37c>
    4ccc:	bc 25 00 02 	l.sfnei r5,0x2
    4cd0:	0c 00 00 d7 	l.bnf 502c <__muldf3+0x3e8>
    4cd4:	84 41 00 38 	l.lwz r2,0x38(r1)
    4cd8:	9c 60 00 00 	l.addi r3,r0,0x0
    4cdc:	86 01 00 24 	l.lwz r16,0x24(r1)
    4ce0:	a8 a3 00 00 	l.ori r5,r3,0x0
    4ce4:	a8 82 00 00 	l.ori r4,r2,0x0
    4ce8:	a8 d0 00 00 	l.ori r6,r16,0x0
    4cec:	04 00 04 0b 	l.jal 5d18 <__muldi3>
    4cf0:	86 81 00 20 	l.lwz r20,0x20(r1)
    4cf4:	9c 60 00 00 	l.addi r3,r0,0x0
    4cf8:	a8 94 00 00 	l.ori r4,r20,0x0
    4cfc:	a8 a3 00 00 	l.ori r5,r3,0x0
    4d00:	a8 c2 00 00 	l.ori r6,r2,0x0
    4d04:	a9 cb 00 00 	l.ori r14,r11,0x0
    4d08:	04 00 04 04 	l.jal 5d18 <__muldi3>
    4d0c:	ab 0c 00 00 	l.ori r24,r12,0x0
    4d10:	9c 60 00 00 	l.addi r3,r0,0x0
    4d14:	87 41 00 34 	l.lwz r26,0x34(r1)
    4d18:	a8 a3 00 00 	l.ori r5,r3,0x0
    4d1c:	a8 d4 00 00 	l.ori r6,r20,0x0
    4d20:	a8 9a 00 00 	l.ori r4,r26,0x0
    4d24:	aa 4c 00 00 	l.ori r18,r12,0x0
    4d28:	04 00 03 fc 	l.jal 5d18 <__muldi3>
    4d2c:	a8 4b 00 00 	l.ori r2,r11,0x0
    4d30:	9c 60 00 00 	l.addi r3,r0,0x0
    4d34:	a8 9a 00 00 	l.ori r4,r26,0x0
    4d38:	a8 a3 00 00 	l.ori r5,r3,0x0
    4d3c:	a8 d0 00 00 	l.ori r6,r16,0x0
    4d40:	aa 8b 00 00 	l.ori r20,r11,0x0
    4d44:	04 00 03 f5 	l.jal 5d18 <__muldi3>
    4d48:	aa cc 00 00 	l.ori r22,r12,0x0
    4d4c:	e0 ac 90 00 	l.add r5,r12,r18
    4d50:	a9 0b 00 00 	l.ori r8,r11,0x0
    4d54:	e4 85 60 00 	l.sfltu r5,r12
    4d58:	0c 00 00 6d 	l.bnf 4f0c <__muldf3+0x2c8>
    4d5c:	9d a0 00 01 	l.addi r13,r0,0x1
    4d60:	e0 e8 10 00 	l.add r7,r8,r2
    4d64:	e0 ed 38 00 	l.add r7,r13,r7
    4d68:	e4 42 38 00 	l.sfgtu r2,r7
    4d6c:	0c 00 00 63 	l.bnf 4ef8 <__muldf3+0x2b4>
    4d70:	e4 22 38 00 	l.sfne r2,r7
    4d74:	9c 40 00 01 	l.addi r2,r0,0x1
    4d78:	9c 60 00 00 	l.addi r3,r0,0x0
    4d7c:	e0 a5 70 00 	l.add r5,r5,r14
    4d80:	e4 4e 28 00 	l.sfgtu r14,r5
    4d84:	0c 00 00 09 	l.bnf 4da8 <__muldf3+0x164>
    4d88:	a8 d8 00 00 	l.ori r6,r24,0x0
    4d8c:	9c 83 00 01 	l.addi r4,r3,0x1
    4d90:	e4 84 18 00 	l.sfltu r4,r3
    4d94:	0c 00 00 81 	l.bnf 4f98 <__muldf3+0x354>
    4d98:	9d 00 00 01 	l.addi r8,r0,0x1
    4d9c:	e1 08 10 00 	l.add r8,r8,r2
    4da0:	a8 64 00 00 	l.ori r3,r4,0x0
    4da4:	a8 48 00 00 	l.ori r2,r8,0x0
    4da8:	e1 87 b0 00 	l.add r12,r7,r22
    4dac:	e4 8c 38 00 	l.sfltu r12,r7
    4db0:	10 00 00 03 	l.bf 4dbc <__muldf3+0x178>
    4db4:	9c 80 00 01 	l.addi r4,r0,0x1
    4db8:	9c 80 00 00 	l.addi r4,r0,0x0
    4dbc:	e1 0c 18 00 	l.add r8,r12,r3
    4dc0:	e0 84 a0 00 	l.add r4,r4,r20
    4dc4:	e4 88 60 00 	l.sfltu r8,r12
    4dc8:	10 00 00 03 	l.bf 4dd4 <__muldf3+0x190>
    4dcc:	9d a0 00 01 	l.addi r13,r0,0x1
    4dd0:	9d a0 00 00 	l.addi r13,r0,0x0
    4dd4:	84 e1 00 18 	l.lwz r7,0x18(r1)
    4dd8:	85 81 00 2c 	l.lwz r12,0x2c(r1)
    4ddc:	85 c1 00 1c 	l.lwz r14,0x1c(r1)
    4de0:	e1 8c 38 05 	l.xor r12,r12,r7
    4de4:	84 e1 00 30 	l.lwz r7,0x30(r1)
    4de8:	e1 60 60 02 	l.sub r11,r0,r12
    4dec:	e0 ee 38 00 	l.add r7,r14,r7
    4df0:	e1 8b 60 04 	l.or r12,r11,r12
    4df4:	e0 84 10 00 	l.add r4,r4,r2
    4df8:	b9 8c 00 5f 	l.srli r12,r12,0x1f
    4dfc:	9c 67 00 04 	l.addi r3,r7,0x4
    4e00:	18 40 1f ff 	l.movhi r2,0x1fff
    4e04:	e0 8d 20 00 	l.add r4,r13,r4
    4e08:	d4 01 18 08 	l.sw 0x8(r1),r3
    4e0c:	a8 42 ff ff 	l.ori r2,r2,0xffff
    4e10:	d4 01 60 04 	l.sw 0x4(r1),r12
    4e14:	e4 44 10 00 	l.sfgtu r4,r2
    4e18:	0c 00 00 17 	l.bnf 4e74 <__muldf3+0x230>
    4e1c:	a8 68 00 00 	l.ori r3,r8,0x0
    4e20:	9c e7 00 05 	l.addi r7,r7,0x5
    4e24:	b9 03 00 41 	l.srli r8,r3,0x1
    4e28:	a4 63 00 01 	l.andi r3,r3,0x1
    4e2c:	b9 64 00 1f 	l.slli r11,r4,0x1f
    4e30:	b9 85 00 1f 	l.slli r12,r5,0x1f
    4e34:	b8 46 00 41 	l.srli r2,r6,0x1
    4e38:	b9 a5 00 41 	l.srli r13,r5,0x1
    4e3c:	b8 84 00 41 	l.srli r4,r4,0x1
    4e40:	bc 03 00 00 	l.sfeqi r3,0x0
    4e44:	10 00 00 05 	l.bf 4e58 <__muldf3+0x214>
    4e48:	a9 e7 00 00 	l.ori r15,r7,0x0
    4e4c:	18 60 80 00 	l.movhi r3,0x8000
    4e50:	e0 cc 10 04 	l.or r6,r12,r2
    4e54:	e0 ad 18 04 	l.or r5,r13,r3
    4e58:	e0 6b 40 04 	l.or r3,r11,r8
    4e5c:	19 00 1f ff 	l.movhi r8,0x1fff
    4e60:	a9 08 ff ff 	l.ori r8,r8,0xffff
    4e64:	e4 44 40 00 	l.sfgtu r4,r8
    4e68:	13 ff ff ef 	l.bf 4e24 <__muldf3+0x1e0>
    4e6c:	9c e7 00 01 	l.addi r7,r7,0x1
    4e70:	d4 01 78 08 	l.sw 0x8(r1),r15
    4e74:	19 60 0f ff 	l.movhi r11,0xfff
    4e78:	a9 6b ff ff 	l.ori r11,r11,0xffff
    4e7c:	e4 44 58 00 	l.sfgtu r4,r11
    4e80:	10 00 00 2c 	l.bf 4f30 <__muldf3+0x2ec>
    4e84:	84 e1 00 08 	l.lwz r7,0x8(r1)
    4e88:	00 00 00 0d 	l.j 4ebc <__muldf3+0x278>
    4e8c:	e1 63 18 00 	l.add r11,r3,r3
    4e90:	e4 88 30 00 	l.sfltu r8,r6
    4e94:	10 00 00 03 	l.bf 4ea0 <__muldf3+0x25c>
    4e98:	9c a0 00 01 	l.addi r5,r0,0x1
    4e9c:	9c a0 00 00 	l.addi r5,r0,0x0
    4ea0:	18 40 0f ff 	l.movhi r2,0xfff
    4ea4:	a8 c8 00 00 	l.ori r6,r8,0x0
    4ea8:	a8 42 ff ff 	l.ori r2,r2,0xffff
    4eac:	e4 4b 10 00 	l.sfgtu r11,r2
    4eb0:	10 00 00 1f 	l.bf 4f2c <__muldf3+0x2e8>
    4eb4:	e0 a5 68 00 	l.add r5,r5,r13
    4eb8:	e1 63 18 00 	l.add r11,r3,r3
    4ebc:	e0 84 20 00 	l.add r4,r4,r4
    4ec0:	e1 06 30 00 	l.add r8,r6,r6
    4ec4:	e1 a5 28 00 	l.add r13,r5,r5
    4ec8:	9d 80 00 01 	l.addi r12,r0,0x1
    4ecc:	e4 8b 18 00 	l.sfltu r11,r3
    4ed0:	10 00 00 03 	l.bf 4edc <__muldf3+0x298>
    4ed4:	9c e7 ff ff 	l.addi r7,r7,0xffffffff
    4ed8:	9d 80 00 00 	l.addi r12,r0,0x0
    4edc:	e0 8c 20 00 	l.add r4,r12,r4
    4ee0:	a8 6b 00 00 	l.ori r3,r11,0x0
    4ee4:	bd 85 00 00 	l.sfltsi r5,0x0
    4ee8:	0f ff ff ea 	l.bnf 4e90 <__muldf3+0x24c>
    4eec:	a9 64 00 00 	l.ori r11,r4,0x0
    4ef0:	03 ff ff e8 	l.j 4e90 <__muldf3+0x24c>
    4ef4:	a8 63 00 01 	l.ori r3,r3,0x1
    4ef8:	0c 00 00 2a 	l.bnf 4fa0 <__muldf3+0x35c>
    4efc:	e4 52 28 00 	l.sfgtu r18,r5
    4f00:	9c 40 00 00 	l.addi r2,r0,0x0
    4f04:	03 ff ff 9e 	l.j 4d7c <__muldf3+0x138>
    4f08:	9c 60 00 00 	l.addi r3,r0,0x0
    4f0c:	9d a0 00 00 	l.addi r13,r0,0x0
    4f10:	e0 e8 10 00 	l.add r7,r8,r2
    4f14:	e0 ed 38 00 	l.add r7,r13,r7
    4f18:	e4 42 38 00 	l.sfgtu r2,r7
    4f1c:	13 ff ff 96 	l.bf 4d74 <__muldf3+0x130>
    4f20:	e4 22 38 00 	l.sfne r2,r7
    4f24:	03 ff ff f5 	l.j 4ef8 <__muldf3+0x2b4>
    4f28:	15 00 00 00 	l.nop 0x0
    4f2c:	d4 01 38 08 	l.sw 0x8(r1),r7
    4f30:	a4 43 00 ff 	l.andi r2,r3,0xff
    4f34:	bc 22 00 80 	l.sfnei r2,0x80
    4f38:	0c 00 00 2b 	l.bnf 4fe4 <__muldf3+0x3a0>
    4f3c:	a4 43 01 00 	l.andi r2,r3,0x100
    4f40:	9c 40 00 03 	l.addi r2,r0,0x3
    4f44:	d4 01 18 10 	l.sw 0x10(r1),r3
    4f48:	d4 01 20 0c 	l.sw 0xc(r1),r4
    4f4c:	d4 01 10 00 	l.sw 0x0(r1),r2
    4f50:	a8 61 00 00 	l.ori r3,r1,0x0
    4f54:	07 ff fd f0 	l.jal 4714 <__pack_d>
    4f58:	15 00 00 00 	l.nop 0x0
    4f5c:	9c 21 00 70 	l.addi r1,r1,0x70
    4f60:	a8 4b 00 00 	l.ori r2,r11,0x0
    4f64:	a8 6c 00 00 	l.ori r3,r12,0x0
    4f68:	85 21 ff fc 	l.lwz r9,0xfffffffc(r1)
    4f6c:	e1 62 00 04 	l.or r11,r2,r0
    4f70:	e1 83 00 04 	l.or r12,r3,r0
    4f74:	85 c1 ff e0 	l.lwz r14,0xffffffe0(r1)
    4f78:	84 41 ff dc 	l.lwz r2,0xffffffdc(r1)
    4f7c:	86 01 ff e4 	l.lwz r16,0xffffffe4(r1)
    4f80:	86 41 ff e8 	l.lwz r18,0xffffffe8(r1)
    4f84:	86 81 ff ec 	l.lwz r20,0xffffffec(r1)
    4f88:	86 c1 ff f0 	l.lwz r22,0xfffffff0(r1)
    4f8c:	87 01 ff f4 	l.lwz r24,0xfffffff4(r1)
    4f90:	44 00 48 00 	l.jr r9
    4f94:	87 41 ff f8 	l.lwz r26,0xfffffff8(r1)
    4f98:	03 ff ff 81 	l.j 4d9c <__muldf3+0x158>
    4f9c:	9d 00 00 00 	l.addi r8,r0,0x0
    4fa0:	13 ff ff 75 	l.bf 4d74 <__muldf3+0x130>
    4fa4:	9c 40 00 00 	l.addi r2,r0,0x0
    4fa8:	03 ff ff 75 	l.j 4d7c <__muldf3+0x138>
    4fac:	9c 60 00 00 	l.addi r3,r0,0x0
    4fb0:	18 60 00 00 	l.movhi r3,0x0
    4fb4:	bc 05 00 02 	l.sfeqi r5,0x2
    4fb8:	13 ff ff e7 	l.bf 4f54 <__muldf3+0x310>
    4fbc:	a8 63 60 40 	l.ori r3,r3,0x6040
    4fc0:	84 81 00 2c 	l.lwz r4,0x2c(r1)
    4fc4:	84 41 00 18 	l.lwz r2,0x18(r1)
    4fc8:	a8 6e 00 00 	l.ori r3,r14,0x0
    4fcc:	e0 44 10 05 	l.xor r2,r4,r2
    4fd0:	e0 80 10 02 	l.sub r4,r0,r2
    4fd4:	e0 44 10 04 	l.or r2,r4,r2
    4fd8:	b8 42 00 5f 	l.srli r2,r2,0x1f
    4fdc:	03 ff ff de 	l.j 4f54 <__muldf3+0x310>
    4fe0:	d4 01 10 2c 	l.sw 0x2c(r1),r2
    4fe4:	bc 22 00 00 	l.sfnei r2,0x0
    4fe8:	13 ff ff d6 	l.bf 4f40 <__muldf3+0x2fc>
    4fec:	e0 a5 30 04 	l.or r5,r5,r6
    4ff0:	bc 05 00 00 	l.sfeqi r5,0x0
    4ff4:	13 ff ff d3 	l.bf 4f40 <__muldf3+0x2fc>
    4ff8:	9c a3 00 80 	l.addi r5,r3,0x80
    4ffc:	e4 85 18 00 	l.sfltu r5,r3
    5000:	10 00 00 03 	l.bf 500c <__muldf3+0x3c8>
    5004:	9c c0 00 01 	l.addi r6,r0,0x1
    5008:	a8 c2 00 00 	l.ori r6,r2,0x0
    500c:	9c e0 ff 00 	l.addi r7,r0,0xffffff00
    5010:	e0 86 20 00 	l.add r4,r6,r4
    5014:	03 ff ff cb 	l.j 4f40 <__muldf3+0x2fc>
    5018:	e0 65 38 03 	l.and r3,r5,r7
    501c:	18 60 00 00 	l.movhi r3,0x0
    5020:	bc 02 00 02 	l.sfeqi r2,0x2
    5024:	13 ff ff cc 	l.bf 4f54 <__muldf3+0x310>
    5028:	a8 63 60 40 	l.ori r3,r3,0x6040
    502c:	84 41 00 18 	l.lwz r2,0x18(r1)
    5030:	84 81 00 2c 	l.lwz r4,0x2c(r1)
    5034:	a8 70 00 00 	l.ori r3,r16,0x0
    5038:	e0 44 10 05 	l.xor r2,r4,r2
    503c:	e0 80 10 02 	l.sub r4,r0,r2
    5040:	e0 44 10 04 	l.or r2,r4,r2
    5044:	b8 42 00 5f 	l.srli r2,r2,0x1f
    5048:	03 ff ff c3 	l.j 4f54 <__muldf3+0x310>
    504c:	d4 01 10 18 	l.sw 0x18(r1),r2

00005050 <__divdf3>:
    5050:	d7 e1 4f fc 	l.sw 0xfffffffc(r1),r9
    5054:	d7 e1 17 f0 	l.sw 0xfffffff0(r1),r2
    5058:	d7 e1 77 f4 	l.sw 0xfffffff4(r1),r14
    505c:	d7 e1 87 f8 	l.sw 0xfffffff8(r1),r16
    5060:	9c 21 ff b8 	l.addi r1,r1,0xffffffb8
    5064:	9d c1 00 14 	l.addi r14,r1,0x14
    5068:	d4 01 18 30 	l.sw 0x30(r1),r3
    506c:	d4 01 20 34 	l.sw 0x34(r1),r4
    5070:	9c 61 00 30 	l.addi r3,r1,0x30
    5074:	d4 01 28 28 	l.sw 0x28(r1),r5
    5078:	d4 01 30 2c 	l.sw 0x2c(r1),r6
    507c:	07 ff fe 5f 	l.jal 49f8 <__unpack_d>
    5080:	a8 8e 00 00 	l.ori r4,r14,0x0
    5084:	9c 61 00 28 	l.addi r3,r1,0x28
    5088:	07 ff fe 5c 	l.jal 49f8 <__unpack_d>
    508c:	a8 81 00 00 	l.ori r4,r1,0x0
    5090:	84 41 00 14 	l.lwz r2,0x14(r1)
    5094:	bc a2 00 01 	l.sfleui r2,0x1
    5098:	10 00 00 59 	l.bf 51fc <__divdf3+0x1ac>
    509c:	a8 6e 00 00 	l.ori r3,r14,0x0
    50a0:	84 a1 00 00 	l.lwz r5,0x0(r1)
    50a4:	bc a5 00 01 	l.sfleui r5,0x1
    50a8:	10 00 00 55 	l.bf 51fc <__divdf3+0x1ac>
    50ac:	a8 61 00 00 	l.ori r3,r1,0x0
    50b0:	84 81 00 18 	l.lwz r4,0x18(r1)
    50b4:	84 61 00 04 	l.lwz r3,0x4(r1)
    50b8:	bc 02 00 04 	l.sfeqi r2,0x4
    50bc:	e0 64 18 05 	l.xor r3,r4,r3
    50c0:	10 00 00 63 	l.bf 524c <__divdf3+0x1fc>
    50c4:	d4 01 18 18 	l.sw 0x18(r1),r3
    50c8:	bc 22 00 02 	l.sfnei r2,0x2
    50cc:	0c 00 00 60 	l.bnf 524c <__divdf3+0x1fc>
    50d0:	bc 25 00 04 	l.sfnei r5,0x4
    50d4:	0c 00 00 80 	l.bnf 52d4 <__divdf3+0x284>
    50d8:	bc 25 00 02 	l.sfnei r5,0x2
    50dc:	0c 00 00 7a 	l.bnf 52c4 <__divdf3+0x274>
    50e0:	84 41 00 08 	l.lwz r2,0x8(r1)
    50e4:	84 61 00 1c 	l.lwz r3,0x1c(r1)
    50e8:	84 c1 00 20 	l.lwz r6,0x20(r1)
    50ec:	e0 43 10 02 	l.sub r2,r3,r2
    50f0:	86 21 00 0c 	l.lwz r17,0xc(r1)
    50f4:	d4 01 10 1c 	l.sw 0x1c(r1),r2
    50f8:	84 a1 00 24 	l.lwz r5,0x24(r1)
    50fc:	e4 51 30 00 	l.sfgtu r17,r6
    5100:	0c 00 00 4b 	l.bnf 522c <__divdf3+0x1dc>
    5104:	86 e1 00 10 	l.lwz r23,0x10(r1)
    5108:	e0 65 28 00 	l.add r3,r5,r5
    510c:	e4 83 28 00 	l.sfltu r3,r5
    5110:	0c 00 00 55 	l.bnf 5264 <__divdf3+0x214>
    5114:	9c 80 00 01 	l.addi r4,r0,0x1
    5118:	e0 c6 30 00 	l.add r6,r6,r6
    511c:	9c 42 ff ff 	l.addi r2,r2,0xffffffff
    5120:	e0 c4 30 00 	l.add r6,r4,r6
    5124:	a8 a3 00 00 	l.ori r5,r3,0x0
    5128:	d4 01 10 1c 	l.sw 0x1c(r1),r2
    512c:	9d a0 00 3d 	l.addi r13,r0,0x3d
    5130:	18 40 10 00 	l.movhi r2,0x1000
    5134:	9c 60 00 00 	l.addi r3,r0,0x0
    5138:	9d 60 00 00 	l.addi r11,r0,0x0
    513c:	9d 80 00 00 	l.addi r12,r0,0x0
    5140:	ba a2 00 1f 	l.slli r21,r2,0x1f
    5144:	b9 e3 00 41 	l.srli r15,r3,0x1
    5148:	ba 62 00 41 	l.srli r19,r2,0x1
    514c:	9d ad ff ff 	l.addi r13,r13,0xffffffff
    5150:	e1 f5 78 04 	l.or r15,r21,r15
    5154:	a8 f3 00 00 	l.ori r7,r19,0x0
    5158:	e4 51 30 00 	l.sfgtu r17,r6
    515c:	10 00 00 15 	l.bf 51b0 <__divdf3+0x160>
    5160:	a9 0f 00 00 	l.ori r8,r15,0x0
    5164:	e1 eb 10 04 	l.or r15,r11,r2
    5168:	e2 ac 18 04 	l.or r21,r12,r3
    516c:	a8 4f 00 00 	l.ori r2,r15,0x0
    5170:	e2 66 88 02 	l.sub r19,r6,r17
    5174:	e1 e5 b8 02 	l.sub r15,r5,r23
    5178:	e4 31 30 00 	l.sfne r17,r6
    517c:	10 00 00 05 	l.bf 5190 <__divdf3+0x140>
    5180:	a8 75 00 00 	l.ori r3,r21,0x0
    5184:	e4 57 28 00 	l.sfgtu r23,r5
    5188:	10 00 00 0a 	l.bf 51b0 <__divdf3+0x160>
    518c:	15 00 00 00 	l.nop 0x0
    5190:	e4 4f 28 00 	l.sfgtu r15,r5
    5194:	9c c0 00 01 	l.addi r6,r0,0x1
    5198:	e1 62 00 04 	l.or r11,r2,r0
    519c:	e1 83 00 04 	l.or r12,r3,r0
    51a0:	10 00 00 03 	l.bf 51ac <__divdf3+0x15c>
    51a4:	a8 af 00 00 	l.ori r5,r15,0x0
    51a8:	9c c0 00 00 	l.addi r6,r0,0x0
    51ac:	e0 d3 30 02 	l.sub r6,r19,r6
    51b0:	e1 e5 28 00 	l.add r15,r5,r5
    51b4:	e0 c6 30 00 	l.add r6,r6,r6
    51b8:	e4 8f 28 00 	l.sfltu r15,r5
    51bc:	e0 47 00 04 	l.or r2,r7,r0
    51c0:	e0 68 00 04 	l.or r3,r8,r0
    51c4:	10 00 00 03 	l.bf 51d0 <__divdf3+0x180>
    51c8:	9e 60 00 01 	l.addi r19,r0,0x1
    51cc:	9e 60 00 00 	l.addi r19,r0,0x0
    51d0:	a8 af 00 00 	l.ori r5,r15,0x0
    51d4:	bc 2d 00 00 	l.sfnei r13,0x0
    51d8:	13 ff ff da 	l.bf 5140 <__divdf3+0xf0>
    51dc:	e0 d3 30 00 	l.add r6,r19,r6
    51e0:	a4 6c 00 ff 	l.andi r3,r12,0xff
    51e4:	bc 23 00 80 	l.sfnei r3,0x80
    51e8:	0c 00 00 26 	l.bnf 5280 <__divdf3+0x230>
    51ec:	a8 8b 00 00 	l.ori r4,r11,0x0
    51f0:	a8 6e 00 00 	l.ori r3,r14,0x0
    51f4:	d4 01 58 20 	l.sw 0x20(r1),r11
    51f8:	d4 01 60 24 	l.sw 0x24(r1),r12
    51fc:	07 ff fd 46 	l.jal 4714 <__pack_d>
    5200:	15 00 00 00 	l.nop 0x0
    5204:	9c 21 00 48 	l.addi r1,r1,0x48
    5208:	a8 4b 00 00 	l.ori r2,r11,0x0
    520c:	a8 6c 00 00 	l.ori r3,r12,0x0
    5210:	85 21 ff fc 	l.lwz r9,0xfffffffc(r1)
    5214:	e1 62 00 04 	l.or r11,r2,r0
    5218:	e1 83 00 04 	l.or r12,r3,r0
    521c:	85 c1 ff f4 	l.lwz r14,0xfffffff4(r1)
    5220:	84 41 ff f0 	l.lwz r2,0xfffffff0(r1)
    5224:	44 00 48 00 	l.jr r9
    5228:	86 01 ff f8 	l.lwz r16,0xfffffff8(r1)
    522c:	e4 31 30 00 	l.sfne r17,r6
    5230:	13 ff ff c0 	l.bf 5130 <__divdf3+0xe0>
    5234:	9d a0 00 3d 	l.addi r13,r0,0x3d
    5238:	e4 57 28 00 	l.sfgtu r23,r5
    523c:	0f ff ff bd 	l.bnf 5130 <__divdf3+0xe0>
    5240:	e0 65 28 00 	l.add r3,r5,r5
    5244:	03 ff ff b3 	l.j 5110 <__divdf3+0xc0>
    5248:	e4 83 28 00 	l.sfltu r3,r5
    524c:	18 60 00 00 	l.movhi r3,0x0
    5250:	e4 02 28 00 	l.sfeq r2,r5
    5254:	13 ff ff ea 	l.bf 51fc <__divdf3+0x1ac>
    5258:	a8 63 60 40 	l.ori r3,r3,0x6040
    525c:	03 ff ff e8 	l.j 51fc <__divdf3+0x1ac>
    5260:	a8 6e 00 00 	l.ori r3,r14,0x0
    5264:	9c 80 00 00 	l.addi r4,r0,0x0
    5268:	e0 c6 30 00 	l.add r6,r6,r6
    526c:	9c 42 ff ff 	l.addi r2,r2,0xffffffff
    5270:	e0 c4 30 00 	l.add r6,r4,r6
    5274:	a8 a3 00 00 	l.ori r5,r3,0x0
    5278:	03 ff ff ad 	l.j 512c <__divdf3+0xdc>
    527c:	d4 01 10 1c 	l.sw 0x1c(r1),r2
    5280:	a4 6c 01 00 	l.andi r3,r12,0x100
    5284:	bc 23 00 00 	l.sfnei r3,0x0
    5288:	13 ff ff db 	l.bf 51f4 <__divdf3+0x1a4>
    528c:	a8 6e 00 00 	l.ori r3,r14,0x0
    5290:	e0 c6 78 04 	l.or r6,r6,r15
    5294:	bc 06 00 00 	l.sfeqi r6,0x0
    5298:	13 ff ff d7 	l.bf 51f4 <__divdf3+0x1a4>
    529c:	15 00 00 00 	l.nop 0x0
    52a0:	9c 6c 00 80 	l.addi r3,r12,0x80
    52a4:	e4 83 60 00 	l.sfltu r3,r12
    52a8:	10 00 00 03 	l.bf 52b4 <__divdf3+0x264>
    52ac:	9c a0 00 01 	l.addi r5,r0,0x1
    52b0:	a8 ad 00 00 	l.ori r5,r13,0x0
    52b4:	9c 40 ff 00 	l.addi r2,r0,0xffffff00
    52b8:	e1 65 20 00 	l.add r11,r5,r4
    52bc:	03 ff ff cd 	l.j 51f0 <__divdf3+0x1a0>
    52c0:	e1 83 10 03 	l.and r12,r3,r2
    52c4:	9c 40 00 04 	l.addi r2,r0,0x4
    52c8:	a8 6e 00 00 	l.ori r3,r14,0x0
    52cc:	03 ff ff cc 	l.j 51fc <__divdf3+0x1ac>
    52d0:	d4 01 10 14 	l.sw 0x14(r1),r2
    52d4:	9c 60 00 00 	l.addi r3,r0,0x0
    52d8:	9c 40 00 00 	l.addi r2,r0,0x0
    52dc:	d4 01 10 20 	l.sw 0x20(r1),r2
    52e0:	d4 01 18 24 	l.sw 0x24(r1),r3
    52e4:	9c 60 00 00 	l.addi r3,r0,0x0
    52e8:	d4 01 18 1c 	l.sw 0x1c(r1),r3
    52ec:	03 ff ff c4 	l.j 51fc <__divdf3+0x1ac>
    52f0:	a8 6e 00 00 	l.ori r3,r14,0x0

000052f4 <__fpcmp_parts_d>:
    52f4:	84 a3 00 00 	l.lwz r5,0x0(r3)
    52f8:	9d 60 00 01 	l.addi r11,r0,0x1
    52fc:	e4 a5 58 00 	l.sfleu r5,r11
    5300:	10 00 00 16 	l.bf 5358 <__fpcmp_parts_d+0x64>
    5304:	15 00 00 00 	l.nop 0x0
    5308:	84 c4 00 00 	l.lwz r6,0x0(r4)
    530c:	e4 a6 58 00 	l.sfleu r6,r11
    5310:	10 00 00 12 	l.bf 5358 <__fpcmp_parts_d+0x64>
    5314:	bc 25 00 04 	l.sfnei r5,0x4
    5318:	0c 00 00 44 	l.bnf 5428 <__fpcmp_parts_d+0x134>
    531c:	bc 26 00 04 	l.sfnei r6,0x4
    5320:	0c 00 00 19 	l.bnf 5384 <__fpcmp_parts_d+0x90>
    5324:	bc 25 00 02 	l.sfnei r5,0x2
    5328:	0c 00 00 14 	l.bnf 5378 <__fpcmp_parts_d+0x84>
    532c:	bc 26 00 02 	l.sfnei r6,0x2
    5330:	0c 00 00 0c 	l.bnf 5360 <__fpcmp_parts_d+0x6c>
    5334:	15 00 00 00 	l.nop 0x0
    5338:	84 a3 00 04 	l.lwz r5,0x4(r3)
    533c:	84 c4 00 04 	l.lwz r6,0x4(r4)
    5340:	e4 05 30 00 	l.sfeq r5,r6
    5344:	10 00 00 16 	l.bf 539c <__fpcmp_parts_d+0xa8>
    5348:	15 00 00 00 	l.nop 0x0
    534c:	bc 05 00 00 	l.sfeqi r5,0x0
    5350:	0c 00 00 08 	l.bnf 5370 <__fpcmp_parts_d+0x7c>
    5354:	15 00 00 00 	l.nop 0x0
    5358:	44 00 48 00 	l.jr r9
    535c:	15 00 00 00 	l.nop 0x0
    5360:	84 63 00 04 	l.lwz r3,0x4(r3)
    5364:	bc 03 00 00 	l.sfeqi r3,0x0
    5368:	13 ff ff fc 	l.bf 5358 <__fpcmp_parts_d+0x64>
    536c:	15 00 00 00 	l.nop 0x0
    5370:	44 00 48 00 	l.jr r9
    5374:	9d 60 ff ff 	l.addi r11,r0,0xffffffff
    5378:	bc 06 00 02 	l.sfeqi r6,0x2
    537c:	13 ff ff f7 	l.bf 5358 <__fpcmp_parts_d+0x64>
    5380:	9d 60 00 00 	l.addi r11,r0,0x0
    5384:	84 64 00 04 	l.lwz r3,0x4(r4)
    5388:	bc 03 00 00 	l.sfeqi r3,0x0
    538c:	13 ff ff f3 	l.bf 5358 <__fpcmp_parts_d+0x64>
    5390:	9d 60 ff ff 	l.addi r11,r0,0xffffffff
    5394:	44 00 48 00 	l.jr r9
    5398:	9d 60 00 01 	l.addi r11,r0,0x1
    539c:	84 e3 00 08 	l.lwz r7,0x8(r3)
    53a0:	84 c4 00 08 	l.lwz r6,0x8(r4)
    53a4:	e5 a7 30 00 	l.sfles r7,r6
    53a8:	0f ff ff ea 	l.bnf 5350 <__fpcmp_parts_d+0x5c>
    53ac:	bc 05 00 00 	l.sfeqi r5,0x0
    53b0:	e5 67 30 00 	l.sfges r7,r6
    53b4:	0c 00 00 15 	l.bnf 5408 <__fpcmp_parts_d+0x114>
    53b8:	bc 05 00 00 	l.sfeqi r5,0x0
    53bc:	84 c3 00 0c 	l.lwz r6,0xc(r3)
    53c0:	84 e4 00 0c 	l.lwz r7,0xc(r4)
    53c4:	84 63 00 10 	l.lwz r3,0x10(r3)
    53c8:	e4 46 38 00 	l.sfgtu r6,r7
    53cc:	10 00 00 13 	l.bf 5418 <__fpcmp_parts_d+0x124>
    53d0:	84 84 00 10 	l.lwz r4,0x10(r4)
    53d4:	e4 26 38 00 	l.sfne r6,r7
    53d8:	10 00 00 05 	l.bf 53ec <__fpcmp_parts_d+0xf8>
    53dc:	e4 47 30 00 	l.sfgtu r7,r6
    53e0:	e4 43 20 00 	l.sfgtu r3,r4
    53e4:	10 00 00 0d 	l.bf 5418 <__fpcmp_parts_d+0x124>
    53e8:	e4 47 30 00 	l.sfgtu r7,r6
    53ec:	10 00 00 07 	l.bf 5408 <__fpcmp_parts_d+0x114>
    53f0:	bc 05 00 00 	l.sfeqi r5,0x0
    53f4:	e4 27 30 00 	l.sfne r7,r6
    53f8:	10 00 00 0a 	l.bf 5420 <__fpcmp_parts_d+0x12c>
    53fc:	e4 44 18 00 	l.sfgtu r4,r3
    5400:	0c 00 00 08 	l.bnf 5420 <__fpcmp_parts_d+0x12c>
    5404:	bc 05 00 00 	l.sfeqi r5,0x0
    5408:	0f ff ff e3 	l.bnf 5394 <__fpcmp_parts_d+0xa0>
    540c:	9d 60 ff ff 	l.addi r11,r0,0xffffffff
    5410:	44 00 48 00 	l.jr r9
    5414:	15 00 00 00 	l.nop 0x0
    5418:	03 ff ff cd 	l.j 534c <__fpcmp_parts_d+0x58>
    541c:	9d 60 00 01 	l.addi r11,r0,0x1
    5420:	44 00 48 00 	l.jr r9
    5424:	9d 60 00 00 	l.addi r11,r0,0x0
    5428:	13 ff ff ce 	l.bf 5360 <__fpcmp_parts_d+0x6c>
    542c:	15 00 00 00 	l.nop 0x0
    5430:	85 64 00 04 	l.lwz r11,0x4(r4)
    5434:	84 63 00 04 	l.lwz r3,0x4(r3)
    5438:	44 00 48 00 	l.jr r9
    543c:	e1 6b 18 02 	l.sub r11,r11,r3

00005440 <__cmpdf2>:
    5440:	d7 e1 4f fc 	l.sw 0xfffffffc(r1),r9
    5444:	d7 e1 17 f4 	l.sw 0xfffffff4(r1),r2
    5448:	d7 e1 77 f8 	l.sw 0xfffffff8(r1),r14
    544c:	9c 21 ff bc 	l.addi r1,r1,0xffffffbc
    5450:	9d c1 00 14 	l.addi r14,r1,0x14
    5454:	d4 01 18 30 	l.sw 0x30(r1),r3
    5458:	d4 01 20 34 	l.sw 0x34(r1),r4
    545c:	9c 61 00 30 	l.addi r3,r1,0x30
    5460:	d4 01 28 28 	l.sw 0x28(r1),r5
    5464:	d4 01 30 2c 	l.sw 0x2c(r1),r6
    5468:	07 ff fd 64 	l.jal 49f8 <__unpack_d>
    546c:	a8 8e 00 00 	l.ori r4,r14,0x0
    5470:	9c 61 00 28 	l.addi r3,r1,0x28
    5474:	07 ff fd 61 	l.jal 49f8 <__unpack_d>
    5478:	a8 81 00 00 	l.ori r4,r1,0x0
    547c:	a8 6e 00 00 	l.ori r3,r14,0x0
    5480:	07 ff ff 9d 	l.jal 52f4 <__fpcmp_parts_d>
    5484:	a8 81 00 00 	l.ori r4,r1,0x0
    5488:	9c 21 00 44 	l.addi r1,r1,0x44
    548c:	85 21 ff fc 	l.lwz r9,0xfffffffc(r1)
    5490:	84 41 ff f4 	l.lwz r2,0xfffffff4(r1)
    5494:	44 00 48 00 	l.jr r9
    5498:	85 c1 ff f8 	l.lwz r14,0xfffffff8(r1)

0000549c <__eqdf2>:
    549c:	d7 e1 4f fc 	l.sw 0xfffffffc(r1),r9
    54a0:	d7 e1 77 f8 	l.sw 0xfffffff8(r1),r14
    54a4:	d7 e1 17 f4 	l.sw 0xfffffff4(r1),r2
    54a8:	9c 21 ff bc 	l.addi r1,r1,0xffffffbc
    54ac:	9d c1 00 14 	l.addi r14,r1,0x14
    54b0:	d4 01 18 30 	l.sw 0x30(r1),r3
    54b4:	d4 01 20 34 	l.sw 0x34(r1),r4
    54b8:	9c 61 00 30 	l.addi r3,r1,0x30
    54bc:	d4 01 28 28 	l.sw 0x28(r1),r5
    54c0:	d4 01 30 2c 	l.sw 0x2c(r1),r6
    54c4:	07 ff fd 4d 	l.jal 49f8 <__unpack_d>
    54c8:	a8 8e 00 00 	l.ori r4,r14,0x0
    54cc:	9c 61 00 28 	l.addi r3,r1,0x28
    54d0:	07 ff fd 4a 	l.jal 49f8 <__unpack_d>
    54d4:	a8 81 00 00 	l.ori r4,r1,0x0
    54d8:	9d 60 00 01 	l.addi r11,r0,0x1
    54dc:	84 61 00 14 	l.lwz r3,0x14(r1)
    54e0:	e4 a3 58 00 	l.sfleu r3,r11
    54e4:	10 00 00 07 	l.bf 5500 <__eqdf2+0x64>
    54e8:	84 61 00 00 	l.lwz r3,0x0(r1)
    54ec:	e4 a3 58 00 	l.sfleu r3,r11
    54f0:	10 00 00 04 	l.bf 5500 <__eqdf2+0x64>
    54f4:	a8 6e 00 00 	l.ori r3,r14,0x0
    54f8:	07 ff ff 7f 	l.jal 52f4 <__fpcmp_parts_d>
    54fc:	a8 81 00 00 	l.ori r4,r1,0x0
    5500:	9c 21 00 44 	l.addi r1,r1,0x44
    5504:	85 21 ff fc 	l.lwz r9,0xfffffffc(r1)
    5508:	84 41 ff f4 	l.lwz r2,0xfffffff4(r1)
    550c:	44 00 48 00 	l.jr r9
    5510:	85 c1 ff f8 	l.lwz r14,0xfffffff8(r1)

00005514 <__nedf2>:
    5514:	d7 e1 4f fc 	l.sw 0xfffffffc(r1),r9
    5518:	d7 e1 77 f8 	l.sw 0xfffffff8(r1),r14
    551c:	d7 e1 17 f4 	l.sw 0xfffffff4(r1),r2
    5520:	9c 21 ff bc 	l.addi r1,r1,0xffffffbc
    5524:	9d c1 00 14 	l.addi r14,r1,0x14
    5528:	d4 01 18 30 	l.sw 0x30(r1),r3
    552c:	d4 01 20 34 	l.sw 0x34(r1),r4
    5530:	9c 61 00 30 	l.addi r3,r1,0x30
    5534:	d4 01 28 28 	l.sw 0x28(r1),r5
    5538:	d4 01 30 2c 	l.sw 0x2c(r1),r6
    553c:	07 ff fd 2f 	l.jal 49f8 <__unpack_d>
    5540:	a8 8e 00 00 	l.ori r4,r14,0x0
    5544:	9c 61 00 28 	l.addi r3,r1,0x28
    5548:	07 ff fd 2c 	l.jal 49f8 <__unpack_d>
    554c:	a8 81 00 00 	l.ori r4,r1,0x0
    5550:	9d 60 00 01 	l.addi r11,r0,0x1
    5554:	84 61 00 14 	l.lwz r3,0x14(r1)
    5558:	e4 a3 58 00 	l.sfleu r3,r11
    555c:	10 00 00 07 	l.bf 5578 <__nedf2+0x64>
    5560:	84 61 00 00 	l.lwz r3,0x0(r1)
    5564:	e4 a3 58 00 	l.sfleu r3,r11
    5568:	10 00 00 04 	l.bf 5578 <__nedf2+0x64>
    556c:	a8 6e 00 00 	l.ori r3,r14,0x0
    5570:	07 ff ff 61 	l.jal 52f4 <__fpcmp_parts_d>
    5574:	a8 81 00 00 	l.ori r4,r1,0x0
    5578:	9c 21 00 44 	l.addi r1,r1,0x44
    557c:	85 21 ff fc 	l.lwz r9,0xfffffffc(r1)
    5580:	84 41 ff f4 	l.lwz r2,0xfffffff4(r1)
    5584:	44 00 48 00 	l.jr r9
    5588:	85 c1 ff f8 	l.lwz r14,0xfffffff8(r1)

0000558c <__gtdf2>:
    558c:	d7 e1 4f fc 	l.sw 0xfffffffc(r1),r9
    5590:	d7 e1 77 f8 	l.sw 0xfffffff8(r1),r14
    5594:	d7 e1 17 f4 	l.sw 0xfffffff4(r1),r2
    5598:	9c 21 ff bc 	l.addi r1,r1,0xffffffbc
    559c:	9d c1 00 14 	l.addi r14,r1,0x14
    55a0:	d4 01 18 30 	l.sw 0x30(r1),r3
    55a4:	d4 01 20 34 	l.sw 0x34(r1),r4
    55a8:	9c 61 00 30 	l.addi r3,r1,0x30
    55ac:	d4 01 28 28 	l.sw 0x28(r1),r5
    55b0:	d4 01 30 2c 	l.sw 0x2c(r1),r6
    55b4:	07 ff fd 11 	l.jal 49f8 <__unpack_d>
    55b8:	a8 8e 00 00 	l.ori r4,r14,0x0
    55bc:	9c 61 00 28 	l.addi r3,r1,0x28
    55c0:	07 ff fd 0e 	l.jal 49f8 <__unpack_d>
    55c4:	a8 81 00 00 	l.ori r4,r1,0x0
    55c8:	84 61 00 14 	l.lwz r3,0x14(r1)
    55cc:	bc a3 00 01 	l.sfleui r3,0x1
    55d0:	10 00 00 08 	l.bf 55f0 <__gtdf2+0x64>
    55d4:	9d 60 ff ff 	l.addi r11,r0,0xffffffff
    55d8:	84 61 00 00 	l.lwz r3,0x0(r1)
    55dc:	bc a3 00 01 	l.sfleui r3,0x1
    55e0:	10 00 00 04 	l.bf 55f0 <__gtdf2+0x64>
    55e4:	a8 6e 00 00 	l.ori r3,r14,0x0
    55e8:	07 ff ff 43 	l.jal 52f4 <__fpcmp_parts_d>
    55ec:	a8 81 00 00 	l.ori r4,r1,0x0
    55f0:	9c 21 00 44 	l.addi r1,r1,0x44
    55f4:	85 21 ff fc 	l.lwz r9,0xfffffffc(r1)
    55f8:	84 41 ff f4 	l.lwz r2,0xfffffff4(r1)
    55fc:	44 00 48 00 	l.jr r9
    5600:	85 c1 ff f8 	l.lwz r14,0xfffffff8(r1)

00005604 <__gedf2>:
    5604:	d7 e1 4f fc 	l.sw 0xfffffffc(r1),r9
    5608:	d7 e1 77 f8 	l.sw 0xfffffff8(r1),r14
    560c:	d7 e1 17 f4 	l.sw 0xfffffff4(r1),r2
    5610:	9c 21 ff bc 	l.addi r1,r1,0xffffffbc
    5614:	9d c1 00 14 	l.addi r14,r1,0x14
    5618:	d4 01 18 30 	l.sw 0x30(r1),r3
    561c:	d4 01 20 34 	l.sw 0x34(r1),r4
    5620:	9c 61 00 30 	l.addi r3,r1,0x30
    5624:	d4 01 28 28 	l.sw 0x28(r1),r5
    5628:	d4 01 30 2c 	l.sw 0x2c(r1),r6
    562c:	07 ff fc f3 	l.jal 49f8 <__unpack_d>
    5630:	a8 8e 00 00 	l.ori r4,r14,0x0
    5634:	9c 61 00 28 	l.addi r3,r1,0x28
    5638:	07 ff fc f0 	l.jal 49f8 <__unpack_d>
    563c:	a8 81 00 00 	l.ori r4,r1,0x0
    5640:	84 61 00 14 	l.lwz r3,0x14(r1)
    5644:	bc a3 00 01 	l.sfleui r3,0x1
    5648:	10 00 00 08 	l.bf 5668 <__gedf2+0x64>
    564c:	9d 60 ff ff 	l.addi r11,r0,0xffffffff
    5650:	84 61 00 00 	l.lwz r3,0x0(r1)
    5654:	bc a3 00 01 	l.sfleui r3,0x1
    5658:	10 00 00 04 	l.bf 5668 <__gedf2+0x64>
    565c:	a8 6e 00 00 	l.ori r3,r14,0x0
    5660:	07 ff ff 25 	l.jal 52f4 <__fpcmp_parts_d>
    5664:	a8 81 00 00 	l.ori r4,r1,0x0
    5668:	9c 21 00 44 	l.addi r1,r1,0x44
    566c:	85 21 ff fc 	l.lwz r9,0xfffffffc(r1)
    5670:	84 41 ff f4 	l.lwz r2,0xfffffff4(r1)
    5674:	44 00 48 00 	l.jr r9
    5678:	85 c1 ff f8 	l.lwz r14,0xfffffff8(r1)

0000567c <__ltdf2>:
    567c:	d7 e1 4f fc 	l.sw 0xfffffffc(r1),r9
    5680:	d7 e1 77 f8 	l.sw 0xfffffff8(r1),r14
    5684:	d7 e1 17 f4 	l.sw 0xfffffff4(r1),r2
    5688:	9c 21 ff bc 	l.addi r1,r1,0xffffffbc
    568c:	9d c1 00 14 	l.addi r14,r1,0x14
    5690:	d4 01 18 30 	l.sw 0x30(r1),r3
    5694:	d4 01 20 34 	l.sw 0x34(r1),r4
    5698:	9c 61 00 30 	l.addi r3,r1,0x30
    569c:	d4 01 28 28 	l.sw 0x28(r1),r5
    56a0:	d4 01 30 2c 	l.sw 0x2c(r1),r6
    56a4:	07 ff fc d5 	l.jal 49f8 <__unpack_d>
    56a8:	a8 8e 00 00 	l.ori r4,r14,0x0
    56ac:	9c 61 00 28 	l.addi r3,r1,0x28
    56b0:	07 ff fc d2 	l.jal 49f8 <__unpack_d>
    56b4:	a8 81 00 00 	l.ori r4,r1,0x0
    56b8:	9d 60 00 01 	l.addi r11,r0,0x1
    56bc:	84 61 00 14 	l.lwz r3,0x14(r1)
    56c0:	e4 a3 58 00 	l.sfleu r3,r11
    56c4:	10 00 00 07 	l.bf 56e0 <__ltdf2+0x64>
    56c8:	84 61 00 00 	l.lwz r3,0x0(r1)
    56cc:	e4 a3 58 00 	l.sfleu r3,r11
    56d0:	10 00 00 04 	l.bf 56e0 <__ltdf2+0x64>
    56d4:	a8 6e 00 00 	l.ori r3,r14,0x0
    56d8:	07 ff ff 07 	l.jal 52f4 <__fpcmp_parts_d>
    56dc:	a8 81 00 00 	l.ori r4,r1,0x0
    56e0:	9c 21 00 44 	l.addi r1,r1,0x44
    56e4:	85 21 ff fc 	l.lwz r9,0xfffffffc(r1)
    56e8:	84 41 ff f4 	l.lwz r2,0xfffffff4(r1)
    56ec:	44 00 48 00 	l.jr r9
    56f0:	85 c1 ff f8 	l.lwz r14,0xfffffff8(r1)

000056f4 <__ledf2>:
    56f4:	d7 e1 4f fc 	l.sw 0xfffffffc(r1),r9
    56f8:	d7 e1 77 f8 	l.sw 0xfffffff8(r1),r14
    56fc:	d7 e1 17 f4 	l.sw 0xfffffff4(r1),r2
    5700:	9c 21 ff bc 	l.addi r1,r1,0xffffffbc
    5704:	9d c1 00 14 	l.addi r14,r1,0x14
    5708:	d4 01 18 30 	l.sw 0x30(r1),r3
    570c:	d4 01 20 34 	l.sw 0x34(r1),r4
